(dp0
Vlimited
p1
F0.0001271770214403447
sVsuicidal
p2
F1.9155094300733253e-05
sVsearchable
p3
F2.8145867947526e-06
sVsecondly
p4
F0.00026235378246869623
sVconsolidated
p5
F5.278087309415592e-06
sVdesirable
p6
F0.00026157565793633134
sVfoul
p7
F3.2633195639850746e-05
sVasian
p8
F2.9120084135377653e-06
sVcontroversial
p9
F7.174282324208651e-05
sVcaptain
p10
F0.0
sVself-reliant
p11
F6.28378884114956e-06
sVundisputed
p12
F8.111087926545807e-06
sVsomeplace
p13
F2.4550823099403848e-05
sVeligible
p14
F0.00019884426720693463
sVpoorest
p15
F0.0002132759191787352
sVboundless
p16
F5.018951941698852e-05
sVunanswered
p17
F9.856331041922973e-06
sVneighbours
p18
F1.231086618108066e-05
sVsorry
p19
F0.0004876318428495116
sVworth
p20
F9.108039792366748e-05
sVdivergent
p21
F1.7714487211484513e-06
sVupdated
p22
F2.453738797948929e-05
sVrational
p23
F0.00014589725317125545
sVco-operation
p24
F8.45423523829582e-06
sVdynamic
p25
F2.5058528022020235e-05
sVokey
p26
F1.386195865576512e-05
sVmla
p27
F2.685530809124425e-07
sVevery
p28
F1.842024254234154e-05
sVjack
p29
F2.4142122624408296e-10
sVthriving
p30
F6.936927418380034e-06
sVstrictest
p31
F2.679540151800247e-05
sVcourageous
p32
F9.630118806319699e-05
sVvast
p33
F0.0006499465213791227
sVbravest
p34
F1.0365111740745517e-05
sVschool
p35
F4.924051029370537e-10
sVreciprocal
p36
F5.29225561098173e-05
sVcourrier
p37
F5.595476692148215e-06
sVwell-maintained
p38
F2.5375619895375743e-05
sVcorrect
p39
F0.0002479964041390015
sVadmissible
p40
F0.0013179978348151183
sVunrelated
p41
F3.3522835957112565e-06
sVfast-switched
p42
F0.0
sVdeplorable
p43
F0.0003484680266336137
sVreliable
p44
F0.00021870187605593715
sVfavoured
p45
F3.921143150135704e-10
sVcher
p46
F2.7664650498528325e-05
sVtenuous
p47
F0.0002889584535166247
sVnigh
p48
F6.402967364684072e-06
sVconcise
p49
F0.00011610732479883364
sVconsistent
p50
F0.0001157059642234323
sVdirect
p51
F4.765643265266024e-05
sVelegant
p52
F2.2168611903644177e-05
sVlikely
p53
F0.00023421070359013689
sVlouder
p54
F5.297282856970309e-05
sVrigorous
p55
F0.0001883995201664235
sVsubordinate
p56
F3.769156246261854e-06
sVestimated
p57
F1.231086618108066e-05
sVeven
p58
F0.0001335293538812051
sVestablished
p59
F0.00029413340998765214
sVoldest
p60
F1.1685279846588071e-09
sVincompatible
p61
F1.7654710571267778e-05
sVruthless
p62
F4.231127923340199e-05
sVminuscule
p63
F8.076248247402399e-05
sVexactly
p64
F0.00015926890131039086
sVselected
p65
F1.8480905440615638e-09
sVprofitability
p66
F9.414313893977759e-06
sVsupplied
p67
F5.430916676029598e-16
sVliberated
p68
F9.365248599431924e-06
sVabove
p69
F0.0006337877647896329
sVevey
p70
F8.503272989421803e-06
sVresilient
p71
F4.359807500749542e-05
sVnew
p72
F5.900761067499317e-05
sVnet
p73
F0.0
sVincreasing
p74
F0.0002497551849239785
sVever
p75
F8.72565547322236e-06
sVadmiral
p76
F1.111139962732561e-05
sVevolving
p77
F1.1868995244479254e-05
sVfeisty
p78
F1.3953056795720293e-05
sVrichest
p79
F9.474719786440458e-05
sVunseemly
p80
F3.6385136410689674e-05
sVremarried
p81
F1.6449297475244418e-08
sVreported
p82
F6.439037580070152e-05
sVsmokin
p83
F0.0002814259006853584
sVactive
p84
F2.7704992787970164e-05
sVdry
p85
F1.4774156631666568e-05
sVloverly
p86
F0.00012512945638012122
sVchaotic
p87
F6.5447365299621685e-06
sVrubbish
p88
F0.00010251127805790516
sVelaborate
p89
F1.3095613843927487e-05
sVchanged
p90
F2.069397838514121e-05
sVexpedited
p91
F1.164067197444529e-05
sVsuperstitious
p92
F1.231086618108066e-05
sVlonesome
p93
F3.546705770587061e-05
sVsymmetrical
p94
F0.0
sVstipulated
p95
F3.420335326219453e-05
sVsettled
p96
F3.215240674701281e-05
sVastute
p97
F7.863654041008578e-06
sVmutual
p98
F4.3685221948983416e-06
sVfantastic
p99
F0.004511296537299217
sVsecure
p100
F0.00010689298406987831
sVelaborated
p101
F3.2142156204413564e-10
sVspooky
p102
F0.0002237295364085869
sVexplained
p103
F3.082758607023817e-09
sVinequitable
p104
F0.0001479062710332717
sVerected
p105
F1.1797587377113386e-10
sVbro
p106
F1.2367830808308e-09
sVvisible
p107
F0.00013204353241114494
sVsizeable
p108
F0.0004902401923092645
sVachievable
p109
F0.00026092305341146463
sVstern
p110
F3.8558214219968884e-05
sVoff-site
p111
F7.2173752479622305e-06
sVtotal
p112
F3.874055750204953e-06
sVreceivable
p113
F0.00100374569065263
sVnegative
p114
F3.8614142712962575e-05
sVwell-trained
p115
F8.997043113394065e-08
sVcalm
p116
F6.532115983709188e-05
sVright-
p117
F3.874055750204953e-06
sVtell
p118
F5.7814287039227245e-06
sVravishing
p119
F0.0005910743067769944
sVbreathe
p120
F5.2644394976748265e-06
sVtolerated
p121
F1.231086618108066e-05
sVgriet
p122
F1.1609308396321959e-06
sVstandardized
p123
F1.2007703428165844e-05
sVholy
p124
F5.447667312364924e-05
sVwary
p125
F2.9297023544281726e-05
sVsuccessful
p126
F0.00019072415544492432
sVnaive
p127
F2.8586799893798193e-06
sVhereby
p128
F2.8063457668489514e-06
sVacceded
p129
F3.9961468016237995e-06
sVphony
p130
F0.00014861816118613472
sVaware
p131
F0.00016734761005037874
sVwarm
p132
F0.00011548849998481295
sVexcellent
p133
F0.002426011770053726
sVcontinual
p134
F3.2784757571901602e-06
sVadamant
p135
F3.5339750037477675e-06
sVoutdated
p136
F3.305082533051711e-07
sVimmature
p137
F0.0002680140381750395
sVsupplemental
p138
F2.4583185698548394e-05
sVsegregated
p139
F0.0
sVme
p140
F7.824096045768387e-05
sVma
p141
F1.0101640359755145e-10
sVcheapest
p142
F8.53851776682347e-05
sVwork
p143
F0.0001740396056769043
sVdaft
p144
F0.00026533866110247517
sVsweeter
p145
F0.0002828461180560106
sVhenry
p146
F3.774252160307139e-05
sVaddictive
p147
F2.276176089075915e-05
sVindicated
p148
F3.056069000629813e-05
sVjoyous
p149
F1.2310743074880962e-05
sVunjust
p150
F9.461200536739976e-05
sVcited
p151
F4.11000348759286e-05
sVorganized
p152
F2.5912134000722057e-05
sVoverheard
p153
F2.229926785254491e-06
sVneed-to-know
p154
F5.84791026812747e-07
sVpluralistic
p155
F5.635065850856612e-06
sVdavid
p156
F2.4322785610245252e-05
sVlooser
p157
F0.00017045258158917458
sVabsolute
p158
F0.0001894830789131298
sVwell-armed
p159
F6.15543309054033e-06
sVaging
p160
F1.4127829530175275e-08
sVconfidential
p161
F5.596407927446478e-06
sVillicit
p162
F0.000231350825215889
sVhon
p163
F2.7628541204386293e-05
sVverify
p164
F4.688450480810308e-06
sVnuts
p165
F0.00016791136005462554
sVfunky
p166
F9.398450843673586e-05
sVfairer
p167
F0.0004650773435105457
sVvery
p168
F0.00036303244224147245
sVhot
p169
F0.0006639236741512068
sVmorbid
p170
F2.4880023535204437e-05
sVadjacent
p171
F3.7082510797630986e-06
sVtoxic
p172
F3.137622467376764e-07
sVwidespread
p173
F0.0003821933010839338
sVfaulty
p174
F3.5406921307100515e-05
sVpreferable
p175
F0.0003098503071549848
sVmassive
p176
F0.00039787021571207525
sVbadly
p177
F5.573516262849859e-05
sVdoable
p178
F2.940755588056427e-05
sVnon-exhaustive
p179
F2.586017448072705e-05
sVinsecure
p180
F3.891532251435732e-05
sVearlier
p181
F0.00020924937856774703
sVvicious
p182
F2.1091576172591173e-05
sVdemanding
p183
F9.325352814955355e-05
sVthankyou
p184
F1.0418792280167122e-05
sVmodest
p185
F0.00012971285946373074
sVfragile
p186
F0.0004954875716035097
sVimmoral
p187
F0.000515083291436157
sVmeaningful
p188
F0.0001745771682149467
sVparallel
p189
F1.8302897622532342e-05
sVmoister
p190
F8.207650331143476e-06
sVcomplacent
p191
F3.4324160546216714e-05
sVelusive
p192
F0.0004197609159681669
sVsplendid
p193
F0.0026103403553725413
sVthird
p194
F0.0004664789423977097
sVhasty
p195
F0.0001849557520735318
sVacknowledged
p196
F8.562048602508449e-06
sVstand-alone
p197
F6.28378884114956e-06
sVcold-rolled
p198
F4.990924018339141e-05
sVencompassing
p199
F1.2380572303164135e-05
sVrogue
p200
F0.00023112818577304502
sVgreen
p201
F0.00026042339678500364
sVpuny
p202
F0.0
sVuninsured
p203
F1.4239217810275457e-06
sVdemocratic
p204
F2.7574333180211706e-05
sVnonsensical
p205
F8.863685087760447e-05
sVwing
p206
F3.874017010034868e-11
sVunsteady
p207
F0.0002873538455379632
sVlonger
p208
F0.00012904620809754894
sVexecuted
p209
F1.4515488411847393e-05
sVwelcomed
p210
F4.033153850871649e-06
sVover
p211
F0.0001597675758188254
sVoff-the-record
p212
F5.84791026812747e-07
sVinconclusive
p213
F7.510346914570598e-05
sVsatisfied
p214
F0.0002386686091513904
sVproportionate
p215
F0.00032808469006011194
sVfrankenstein
p216
F0.0
sVfinest
p217
F0.0049969218053125325
sVghastly
p218
F0.0001845817366177795
sVinnovative
p219
F7.3861331155164e-10
sVresponsive
p220
F0.00012009273347809044
sVslimmer
p221
F9.620517723833486e-06
sVtalkative
p222
F5.78691538317981e-05
sVbefore
p223
F1.5422217069363612e-05
sVom-mazing
p224
F0.00036122655803909863
sVindispensible
p225
F5.7478990992174146e-05
sVby-election
p226
F1.9751339527250507e-05
sVfit
p227
F0.0005111185127991916
sVfun-loving
p228
F2.2247632077837806e-05
sVpersonal
p229
F5.465044674398731e-05
sVcomprehend
p230
F2.9656815302165634e-06
sVbetter
p231
F0.0011476970072271473
sVbottled
p232
F1.231086618108066e-05
sVcompelling
p233
F4.267518988467369e-05
sVdifferently
p234
F5.136402283519063e-06
sVinsubstantial
p235
F3.7581305554535413e-06
sVworkable
p236
F0.00027267419956529835
sVnobler
p237
F2.296695631433343e-05
sVadmirable
p238
F0.0005741678251010296
sVeasier
p239
F0.00031112949939761397
sVpleasurable
p240
F6.335867564985091e-05
sVmaximal
p241
F3.939007332252595e-05
sVthen
p242
F1.892059117344531e-05
sVthem
p243
F3.650412220440607e-05
sVaffected
p244
F3.273520005805319e-05
sVwoken
p245
F1.9200320028893457e-05
sVinterdisciplinary
p246
F4.094679201974627e-06
sVunemployed
p247
F5.695197407524414e-06
sVsafe
p248
F6.628342604412254e-05
sVdiseased
p249
F0.00011582685192187834
sVrepulsive
p250
F0.00010506476183450364
sVshameful
p251
F0.0017376011610585641
sVmultidimensional
p252
F1.310526308831419e-05
sVsixteen
p253
F6.950766435060623e-07
sVundeveloped
p254
F1.1951434187251082e-06
sVleaner
p255
F6.106816343764893e-05
sV-ready
p256
F0.00014524974312454987
sVnotified
p257
F5.96715113433813e-06
sVreasonably
p258
F0.00010110504330868524
sVclassified
p259
F5.84791026812747e-07
sVl
p260
F9.297570549383574e-06
sVdroll
p261
F3.2806268310365114e-05
sVdeficient
p262
F0.00048207386439372914
sVspotless
p263
F5.6303044656491115e-06
sVreasonable
p264
F0.003082613179939851
sVend-to-end
p265
F5.687232607013531e-06
sVentitled
p266
F3.874055750204953e-06
sVlow-skilled
p267
F3.865866023126946e-06
sVluck
p268
F3.0899516786176735e-05
sVfairly
p269
F2.9222615401833533e-05
sVskint
p270
F1.8762389618487832e-06
sVdoomed
p271
F4.103413072982164e-06
sVdisplacement
p272
F1.2947946073400506e-06
sVworded
p273
F7.202975588602955e-10
sVchubby
p274
F0.0
sVdispleased
p275
F4.563703704567025e-05
sVfirst-class
p276
F2.9275974726009386e-05
sVblinded
p277
F1.0686429276203737e-07
sVcertifiable
p278
F0.00025876577755791486
sVice-cold
p279
F2.3813527473773234e-05
sVespeciaily
p280
F2.7609314045097062e-05
sVrestricted
p281
F3.5959461704050086e-05
sVwide-open
p282
F0.0
sVhooked
p283
F3.674372050111312e-05
sVcontent
p284
F4.36707163478907e-05
sVdrawn-out
p285
F2.462173236216132e-05
sVsluggish
p286
F7.937167158440504e-05
sVassured
p287
F1.6369790136705937e-05
sVu.s.
p288
F6.874948481055189e-06
sVlittle
p289
F0.0005427242995861037
sVfree
p290
F3.894804560457302e-05
sVstandard
p291
F0.00018580693123460866
sVaforesaid
p292
F1.8551824585691282e-05
sVtwo-
p293
F1.2053500120081945e-08
sVelle
p294
F1.1111334180614778e-05
sVco-funding
p295
F3.077716545270165e-06
sVwanted
p296
F1.231086618108066e-05
sVcertified
p297
F1.6584168273652144e-06
sVenormous
p298
F0.0006842710880756174
sVcreated
p299
F1.6270666834474268e-05
sVhorseshit
p300
F0.00018175497604810078
sVinexpensive
p301
F6.154433485871322e-05
sVlongterm
p302
F1.8551267775938259e-06
sVdispersal
p303
F1.231086618108066e-05
sVflawless
p304
F0.00015632684532502272
sVdisturbed
p305
F1.2814886859727301e-05
sVspeedy
p306
F2.5688398529357893e-05
sVmulti-ethnic
p307
F0.0
sVtempting
p308
F0.0001058134385627493
sVrepealed
p309
F1.231086618108066e-05
sVloud
p310
F6.869856080919085e-05
sVfuckin
p311
F3.1455589777508826e-06
sVenraged
p312
F4.054771014053865e-05
sValready
p313
F5.911287179213255e-06
sVdaunting
p314
F0.0005022685750225603
sVstate-run
p315
F3.901667171126559e-06
sVunfilled
p316
F4.346998339388862e-06
sVencouraging
p317
F2.027634566689234e-05
sVrank
p318
F0.0
sV-mentioned
p319
F3.312127552453225e-05
sVunspecified
p320
F0.0
sVanother
p321
F1.421658078166053e-05
sVcomin
p322
F2.5067618094665137e-06
sVsober
p323
F1.231086618108066e-05
sVthick
p324
F3.339352193313809e-05
sVwell-formed
p325
F3.0652551212897196e-05
sVpragmatic
p326
F2.9204602369337424e-05
sVsimilarly
p327
F1.4435592582006292e-05
sVopportunity
p328
F6.402967364684072e-06
sVtop
p329
F0.0002066213250640778
sVtired
p330
F1.8834697263478315e-05
sVprotracted
p331
F7.423905319645595e-05
sVtwisted
p332
F5.521289637773391e-05
sVheights
p333
F0.0
sVplentiful
p334
F2.433889909199171e-05
sVneeded
p335
F3.885473461137071e-05
sVresponsable
p336
F5.233391010217536e-06
sVmaster
p337
F6.032551459749047e-06
sVlisted
p338
F4.4436027084633086e-05
sVtom
p339
F1.7714487211484513e-06
sVinconvenient
p340
F8.514204559004196e-05
sVoveremotional
p341
F2.434395183840095e-05
sVbitter
p342
F0.00044743935184550417
sVdamaging
p343
F2.203697136244405e-05
sVilliterate
p344
F1.231086618108066e-05
sVindiscreet
p345
F4.688450480810308e-06
sVenhancing
p346
F1.8543686744198433e-05
sVdiversified
p347
F2.6446262973744564e-06
sVtrippy
p348
F7.554057881035952e-05
sVggood
p349
F1.7238119667428093e-05
sVprouder
p350
F0.0
sVpredictable
p351
F4.4882162492885285e-05
sVwestern
p352
F1.4362895998422515e-05
sVsomewhat
p353
F1.0602432634787317e-05
sVlegally
p354
F1.5970371940007088e-05
sVwasted
p355
F6.003502572347919e-05
sVlonger-term
p356
F2.4355206587785947e-05
sVunsanitary
p357
F0.0
sVreimbursable
p358
F7.322798498892333e-06
sVpeculiar
p359
F0.00041459839899786797
sVpositively
p360
F3.533998563188846e-06
sVself-governing
p361
F1.2466197578303279e-05
sVpast
p362
F2.241515533188588e-05
sVsurer
p363
F2.8362676476007918e-05
sVlast
p364
F6.608396171974462e-05
sVdisciplined
p365
F3.159031923501095e-06
sVenabled
p366
F9.847562640083287e-06
sVsecond
p367
F0.0005310007454142399
sVunmistakable
p368
F4.192971385898633e-05
sVfinal
p369
F1.200736050348942e-05
sVwell-positioned
p370
F0.00023678495823035195
sVobscure
p371
F9.736170137667057e-05
sVidle
p372
F5.695197407524414e-06
sVfabulous
p373
F0.0033409230277812252
sVsilly
p374
F0.0005752169430300316
sVhistorical
p375
F3.520080445935705e-06
sVhigh-cost
p376
F3.3795714184321014e-05
sVforceful
p377
F4.413457425940186e-05
sVrecheck
p378
F0.0
sVhonourable
p379
F4.9556381781845515e-05
sVseminal
p380
F2.313592079203704e-05
sVdonkey
p381
F6.467997831295624e-06
sVmax
p382
F3.939007332252595e-05
sVmodern
p383
F6.109279889339313e-06
sVantagonistic
p384
F4.3685221948983416e-06
sVscrewy
p385
F0.00027134234890609715
sVcorny
p386
F1.2754036970538533e-09
sVseen
p387
F2.376070668667667e-09
sVunaffected
p388
F3.6361745618654593e-05
sVrelatively
p389
F5.025379646817307e-05
sVquieter
p390
F6.433072646611569e-05
sVimplemented
p391
F1.4774169722078022e-05
sVgenuine
p392
F0.00012451059409461135
sVacademic
p393
F3.59337193815772e-05
sVconvenient
p394
F0.0003839750497199461
sVlatter
p395
F3.2582573273374525e-05
sVresponsible
p396
F0.00011904139496226413
sV-
p397
F1.0939393434779847e-05
sVisolated
p398
F2.4092829057893277e-08
sVthorough
p399
F0.00018249909112555095
sVstupid-looking
p400
F2.0567761777684215e-05
sVfitting
p401
F0.0002368624944980014
sVamusing
p402
F9.372615933909413e-05
sVeffectiveness
p403
F1.3213512686109116e-05
sVcompleted
p404
F2.0305984574324694e-05
sVpropitious
p405
F5.751655856319407e-06
sVconducive
p406
F1.2474772634041484e-05
sVhurtful
p407
F0.00012966613844245302
sVstarved
p408
F9.805897475692198e-06
sVthough
p409
F0.0
sVthrilled
p410
F7.128690455191702e-05
sVdoin
p411
F3.101672165133079e-05
sVprohibitive
p412
F5.3128059239604084e-05
sVshorty
p413
F7.902391852780972e-06
sVregular
p414
F0.00021004631196215966
sVplenty
p415
F0.0001195307840651982
sVwhar
p416
F1.7714487211484513e-06
sVgrave
p417
F0.0002868644597892035
sVdummy
p418
F1.6653065597813888e-05
sVhardto
p419
F5.330394477772733e-05
sVmedical
p420
F1.231086618108066e-05
sVdeliberate
p421
F7.658683404490705e-05
sVtreaty
p422
F3.312127552453225e-05
sVorderly
p423
F5.630266931161211e-06
sVentertaining
p424
F4.0390480435133426e-05
sVoutnumbered
p425
F4.642044610780121e-05
sVannoyed
p426
F6.670679923476495e-05
sVincomplete
p427
F0.00015850672571192164
sVfussy
p428
F0.00015369803545663615
sVsaying
p429
F5.7814287039227245e-06
sVoverpriced
p430
F0.0
sVhunger
p431
F9.805979190416015e-06
sVrandom
p432
F7.173737474871685e-05
sVprecarious
p433
F0.0001068020760176351
sVdopey
p434
F0.0
sVqueer
p435
F4.767830151595009e-05
sVlethal
p436
F8.59691047080896e-05
sVsubtle
p437
F6.320339749380015e-05
sVjam-packed
p438
F1.0700920653172253e-05
sVthirds
p439
F0.00025964813833965925
sVabreast
p440
F1.1934097609732869e-05
sVtoast
p441
F6.487932746857452e-06
sVapace
p442
F6.35971562552337e-06
sVrock-hard
p443
F0.000358745880080694
sVbusy
p444
F1.1160262202161975e-05
sVre-appointed
p445
F1.7106067955584337e-06
sVreasonnable
p446
F0.0006740414904928651
sVundignified
p447
F0.0003146956762576497
sVelite
p448
F1.6584168273652144e-06
sVfair-minded
p449
F0.0
sVappreciated
p450
F4.308678287137979e-05
sVgutsy
p451
F8.497043305801985e-06
sVdeepest
p452
F2.5238205615432264e-05
sVrich
p453
F7.760312338916296e-05
sVfolks
p454
F8.503272989421803e-06
sVadequate
p455
F0.0002484600833974704
sVwell-represented
p456
F1.231086618108066e-05
sVdo
p457
F1.231086618108066e-05
sVincorrect
p458
F0.00031237181478934497
sVundecided
p459
F8.291769215601221e-07
sVwide
p460
F0.0005810123254491593
sVrigght
p461
F9.895872676327521e-05
sVscalable
p462
F1.231086618108066e-05
sVpreferred
p463
F1.2575177644137335e-05
sVforemost
p464
F7.7652576011426e-05
sVgeek
p465
F4.103413072982164e-06
sVsmug
p466
F4.429556529274674e-05
sVnathan
p467
F3.874055750204953e-06
sVnasty
p468
F0.0005277779067681054
sVconsiderate
p469
F9.230921433459788e-11
sVinfrequent
p470
F0.00012240499788442573
sVintroduced
p471
F1.2817297103679898e-05
sVidiotic
p472
F8.497537125672352e-05
sVrepugnant
p473
F2.0339447979253095e-05
sVpro-choice
p474
F0.0
sVmonumental
p475
F9.919119597483772e-05
sVautomatic
p476
F1.231086618108066e-05
sVrequire
p477
F1.2345395252825204e-09
sVfarther
p478
F0.0001875298397187024
sVethical
p479
F4.822567499992737e-10
sVabove-mentioned
p480
F8.361388011415605e-06
sVerroneous
p481
F8.481305504439931e-05
sVmandatory
p482
F4.7577487782431744e-05
sVfascinating
p483
F0.00012157401057626312
sVclarified
p484
F6.542183972095731e-06
sVperipheral
p485
F0.00033445371673969366
sVdisorientated
p486
F1.2856461207044488e-05
sVblameless
p487
F0.0
sVobserved
p488
F0.0
sVopposite
p489
F6.831690560355935e-05
sVdemented
p490
F0.00016421868503229987
sVdecided
p491
F4.327890181179856e-11
sVwell-documented
p492
F1.1914196232838284e-05
sVhorrendous
p493
F0.0008352083459428833
sVcorrupt
p494
F0.00022395261609613009
sVsporadic
p495
F6.846665396391509e-06
sVwell-educated
p496
F2.5381369761387675e-06
sVoptimum
p497
F0.00010105292705520392
sVbest
p498
F0.0014270393730709042
sVsubject
p499
F7.68891945950893e-06
sVcruellest
p500
F2.453702716400682e-06
sVinappropriate
p501
F0.0006980901831160532
sVaway
p502
F4.1654013731877206e-05
sVcarsick
p503
F9.667184605908192e-05
sVunable
p504
F0.0004133350216043671
sVin-flight
p505
F1.3041901837144107e-10
sVsimplest
p506
F0.00021872179338080594
sVwhassup
p507
F0.00039071928138612895
sVoccupational
p508
F4.898484125719511e-06
sVunconscionable
p509
F0.0033145126906324127
sVco-
p510
F2.507270279034932e-06
sVhence
p511
F6.447061111678662e-06
sVlazy
p512
F1.231086618108066e-05
sVcleverer
p513
F6.6389936106028645e-06
sVdumber
p514
F5.9089588597419024e-05
sVweak
p515
F0.00047095036439583814
sVhowever
p516
F1.8073651130525963e-05
sVinterdependent
p517
F4.012187167509877e-05
sVsoutheast
p518
F3.455663840809275e-06
sVhere
p519
F8.787796222389972e-05
sVindividualized
p520
F6.15543309054033e-06
sVabolished
p521
F1.1479074898636473e-05
sVreceived
p522
F1.1917064082252984e-05
sVessentially
p523
F9.855025171855077e-06
sVirregular
p524
F1.3577166920811309e-09
sVsmartest
p525
F0.00012144439130266713
sVresistant
p526
F1.862016379252543e-05
sVill
p527
F0.0005073708593709463
sViilegal
p528
F0.0008666804266758318
sVblack-hearted
p529
F7.347891916563145e-09
sVdisastrous
p530
F7.038845373484483e-05
sVexport-ready
p531
F0.0
sVplanned
p532
F1.4261631767987982e-05
sVlookin
p533
F4.31454743963392e-07
sVagile
p534
F4.802165807379138e-05
sVgreater
p535
F0.0008683811913156343
sVrequests
p536
F3.067014307355764e-06
sVadapted
p537
F9.714040602853012e-06
sVasked
p538
F9.541076408168316e-06
sVtough
p539
F0.001781723842591297
sVvain
p540
F0.0
sVhardworking
p541
F0.0004009288181583055
sV2nd
p542
F0.00020683080405805042
sVrepresented
p543
F1.231086618108066e-05
sVunprotected
p544
F2.2918240761085733e-07
sVwider
p545
F0.00041772645601911547
sVloaded
p546
F6.211696728512168e-06
sVbureaucratic
p547
F1.231086618108066e-05
sVmultifocal
p548
F3.4737404504927384e-06
sVpoppycock
p549
F7.962808496879096e-05
sVchloe
p550
F1.111139962732561e-05
sVthree
p551
F2.5201175828886133e-10
sVtiny
p552
F0.00018060393397748725
sVquickly
p553
F5.778992134261384e-05
sVconfident
p554
F3.711832835307563e-05
sVrecognised
p555
F1.239025807106393e-05
sVdetrimental
p556
F5.2252360084512447e-05
sVinterest
p557
F3.309257962361987e-05
sVbasic
p558
F0.000255763183560884
sVflexible
p559
F0.00011473417180698983
sVlovely
p560
F0.002933500810583549
sVincompetent
p561
F5.6304502568644776e-05
sVwell-deserved
p562
F2.4474120018131824e-06
sVbeloved
p563
F1.231086618108066e-05
sVprosperous
p564
F4.798662589135748e-05
sVeastern
p565
F3.0857176916372834e-05
sVjeopardized
p566
F2.4362422223138233e-06
sVuncommon
p567
F0.0003951830949609513
sVcoherent
p568
F5.313605974823268e-05
sVpersonally
p569
F5.12509556159876e-06
sVimmersive
p570
F0.0
sVcomfortable
p571
F0.00034074640805670096
sVpatronizing
p572
F1.231086618108066e-05
sVgracious
p573
F2.0486478671915195e-05
sVapplied
p574
F9.847562640083287e-06
sVunpopular
p575
F3.3633140784577723e-06
sVrighteous
p576
F0.00012079539708970062
sVpublicly
p577
F2.572250224383174e-06
sVinviolable
p578
F0.00011304905762676558
sVprofessionally
p579
F1.6584168273652144e-06
sVremaining
p580
F8.012958901784506e-06
sVlesser
p581
F0.0002905796801244756
sVugly
p582
F0.0010318185933275925
sVnear
p583
F2.8543422397692643e-05
sVover-the-air
p584
F3.388852109956481e-05
sVneat
p585
F0.001034404267739179
sVlaunched
p586
F2.0296089277553686e-05
sVdelineated
p587
F1.3293427494566849e-06
sVreadyto
p588
F2.4206842443695236e-05
sVpreponderant
p589
F7.685312718080631e-06
sVwell-balanced
p590
F2.0363339014063883e-05
sVderisory
p591
F1.1785677507042247e-05
sVit
p592
F2.4463659879609315e-05
sVill-equipped
p593
F0.0
sVil
p594
F1.9155094300733253e-05
sVworld-wide
p595
F8.04907312742866e-06
sVin
p596
F9.346253664950988e-06
sVtrusted
p597
F2.0255184579252438e-05
sVgrown
p598
F2.411841233353958e-08
sVdamaged
p599
F1.4661530779058332e-10
sVpatent
p600
F8.76918025284931e-06
sVbelle
p601
F0.00013957425290526723
sVrealizing
p602
F7.305754778202782e-06
sVrecurrent
p603
F5.388431545604711e-05
sVprincipale
p604
F0.0015713800584889733
sVlinked
p605
F4.362399785993819e-06
sVcompensable
p606
F0.0
sVcomplex
p607
F0.00015258165855011588
sVunfortunate
p608
F0.0004137994427569406
sVseveral
p609
F2.400039481327059e-05
sVinfeasible
p610
F3.939033591864238e-05
sVtoasted
p611
F4.429556529274674e-05
sVeuropean
p612
F1.5124270088155365e-09
sVunharmed
p613
F1.5083605907073678e-05
sVindependent
p614
F3.0301637030218808e-05
sVemphasise
p615
F2.9656667021796247e-06
sVsocial
p616
F0.00019421003669772334
sVdiffering
p617
F1.7715006182579101e-06
sVevil
p618
F0.0005924476531013729
sVtiring
p619
F1.231086618108066e-05
sV-lncredible
p620
F0.003085774967865817
sVjealous
p621
F6.541878354093531e-06
sVpalpable
p622
F6.661740732370198e-05
sVovert
p623
F6.0521787279056846e-05
sVcost-effectiveness
p624
F5.809699301876281e-05
sVkid
p625
F3.7581305554535413e-06
sVprescribed
p626
F4.040465326546876e-05
sVridiculus
p627
F7.28712567421694e-05
sVshortly
p628
F8.774093998528065e-05
sVimmaterial
p629
F8.093470280012835e-05
sVdre
p630
F3.3084159631919823e-09
sVrescinded
p631
F3.7368508083436803e-06
sVhumble
p632
F2.1117890780298578e-05
sV-so
p633
F2.946854918480706e-06
sVunsuitable
p634
F4.183484108752023e-05
sVhearty
p635
F6.017165535319251e-05
sVgreatest
p636
F0.0023213768100851903
sVincapable
p637
F4.3845571030607434e-05
sVdreamy
p638
F0.0005188994515835736
sVtabling
p639
F4.711296248967802e-06
sVleft
p640
F2.7394998363376896e-06
sVunified
p641
F2.1869584039569765e-06
sVstringent
p642
F0.0002395962290932602
sVjust
p643
F5.640177903237474e-05
sVkinky
p644
F1.231086618108066e-05
sVephemeral
p645
F7.410979844281114e-06
sVwarmest
p646
F1.8382482916372246e-05
sVsleepy
p647
F2.462173236216132e-05
sVunfair
p648
F0.0009432644512691565
sVidentify
p649
F0.0
sVthanks
p650
F1.0418792280167122e-05
sVhuman
p651
F8.535619561779622e-06
sVyes
p652
F0.0001043952449516642
sVyet
p653
F3.573461069664117e-05
sVfunctionally
p654
F6.475371071793364e-06
sVprevious
p655
F2.185844957072688e-05
sVnote
p656
F5.5388290934715794e-06
sVmonitored
p657
F3.4640330323665245e-05
sVdocile
p658
F1.231086618108066e-05
sVdearer
p659
F3.3795714184321014e-05
sVcherry
p660
F0.0007078509482925721
sVold-fashioned
p661
F2.462123995705836e-05
sVideal
p662
F0.00015017873909026075
sVtopical
p663
F6.631984325327289e-06
sVsynergistic
p664
F1.5968433504203055e-05
sVinnocent
p665
F5.744024760995735e-06
sVtechnological
p666
F3.865866023126946e-06
sVpitiful
p667
F6.57776661938563e-05
sVeast
p668
F4.011346215017281e-05
sVtolerable
p669
F0.0003016937154673603
sVtrashed
p670
F1.4842183569985462e-06
sVusable
p671
F1.3142891692004211e-05
sVinsensitive
p672
F9.84757245787222e-06
sVadversarial
p673
F1.1061622291453452e-05
sVhypersensitive
p674
F4.49406574402036e-06
sVpossible
p675
F0.0038448157259893378
sVfirmer
p676
F0.00016242714732769107
sVpossibly
p677
F5.178524751680552e-05
sVcultural
p678
F1.0129131594876972e-05
sVdiscreet
p679
F9.654099334237292e-06
sVindicative
p680
F1.231086618108066e-05
sVcopacetic
p681
F7.049215933768823e-05
sVunique
p682
F0.00045541563451806025
sVunfounded
p683
F0.0006970055397928401
sVadvanced
p684
F2.03382391721644e-06
sVapart
p685
F1.5029024981378817e-05
sVpsychological
p686
F2.442451598477997e-08
sVarticulated
p687
F5.058950911294445e-06
sVintertwined
p688
F3.082314662707951e-05
sVpatience
p689
F0.0
sVcooler
p690
F3.964715193851838e-05
sVnude
p691
F3.921477285417084e-05
sVgifted
p692
F2.3586019883783334e-08
sVdishonest
p693
F0.00014292512245491716
sVunnecessary
p694
F0.0003696826961881456
sVspecific
p695
F0.00018056078408354735
sVinformative
p696
F0.00014268381078682936
sVsparse
p697
F0.00011990207370686867
sVarbitrary
p698
F1.231086618108066e-05
sVnotorious
p699
F3.6213493109656403e-06
sVsecurity
p700
F5.934968004904064e-06
sVbeneficial
p701
F0.0002544845685523459
sVright
p702
F0.0010511370665216816
sVold
p703
F1.369487787748024e-05
sVmacabre
p704
F1.231086618108066e-05
sVeasy
p705
F0.0005091971820135153
sViittle
p706
F1.3526165030392305e-05
sVelderly
p707
F1.1862483906597218e-05
sVborn
p708
F2.425786494640906e-08
sVsure
p709
F0.00014782418399869794
sVdear
p710
F1.7386685317769106e-05
sVmultiple
p711
F2.9121041115440996e-05
sVrepelling
p712
F1.2244624139718457e-10
sVpsychogenic
p713
F1.2184013942002276e-08
sVconfusing
p714
F0.0003922072360825561
sVco-funded
p715
F3.077716545270165e-06
sVfor
p716
F1.5238157023652694e-05
sVricher
p717
F2.2195058363317658e-05
sVstronger
p718
F0.0008513501258841306
sVphenomenal
p719
F0.0036978627045555217
sVunavoidable
p720
F3.2775798727562745e-05
sVcreative
p721
F2.4620993748849744e-05
sVwitty
p722
F5.505404870328056e-05
sVprejudicial
p723
F4.977380571358288e-05
sVasking
p724
F7.381252447934457e-07
sVhonoured
p725
F7.144831523762259e-06
sVswearing
p726
F3.921477285417084e-05
sVadorable
p727
F0.000382580309311361
sVpalatable
p728
F7.136297478469804e-06
sVcleanest
p729
F5.991878583356883e-06
sVbold
p730
F5.390756310915881e-05
sVunwholesome
p731
F2.3396591491001514e-05
sVover-optimistic
p732
F9.441973850591392e-07
sVexecutable
p733
F2.1846515320455564e-06
sVconstructive
p734
F1.858951101557801e-05
sVsqueamish
p735
F2.8838053534443914e-05
sVfar-ranging
p736
F9.010583886339562e-06
sVinvaluable
p737
F0.00011391654237669743
sVmemorable
p738
F1.231086618108066e-05
sVsuper
p739
F0.0016833640026081103
sVpermitted
p740
F5.646343294551319e-06
sVimpenetrable
p741
F5.934938330805914e-06
sVanomalous
p742
F3.5406921307100515e-05
sVtrustworthy
p743
F4.562246934918505e-05
sVspeedier
p744
F8.274039559615085e-05
sVensure
p745
F5.934938330805914e-06
sVdotty
p746
F3.101687673183731e-05
sVcost-shared
p747
F2.507270279034932e-06
sVill-founded
p748
F1.966605767986499e-09
sVvegas
p749
F1.231086618108066e-05
sVthinner
p750
F8.355976064229604e-06
sVformerly
p751
F1.0598087563264938e-05
sVunconventional
p752
F2.125677918218944e-10
sVrock-solid
p753
F0.0
sVdelighted
p754
F0.00019748276156038175
sVobscene
p755
F0.0012164622364208724
sVdown
p756
F1.7764465752081084e-10
sVthankful
p757
F8.793307236987698e-06
sVoverkill
p758
F1.4099669194643469e-05
sVproblematical
p759
F5.8063477752262166e-05
sVformidable
p760
F0.0010377501377906418
sVbalanced
p761
F4.5649442000872395e-05
sVhonored
p762
F2.8610882672295835e-06
sVrefined
p763
F3.119228726374893e-05
sVsimillar
p764
F4.275533292840032e-05
sVfrightened
p765
F0.00022561835604813772
sVunambiguous
p766
F0.00012336946819785193
sVcleared
p767
F0.0
sVfrazzled
p768
F2.932311405873782e-10
sVbetter-looking
p769
F4.9422898301322706e-05
sVindispensable
p770
F7.776015140815374e-05
sVinitial
p771
F4.588057020109447e-06
sVavailable
p772
F0.00039651473142176906
sVsovereign
p773
F1.231086618108066e-05
sVtimelier
p774
F0.00012023724162515078
sVabsolutely
p775
F4.491478115334964e-05
sVaccordingly
p776
F5.286130272046466e-06
sVvictorious
p777
F1.231086618108066e-05
sVcounterproductive
p778
F2.9103716838027673e-05
sVauthorized
p779
F4.6493328581826756e-05
sVway
p780
F1.231086618108066e-05
sVbrainless
p781
F7.318940353129153e-05
sVlaunching
p782
F2.0869104279784423e-05
sVhappy
p783
F0.00013116409166901281
sVlowest
p784
F0.00024076134239819121
sVmedium
p785
F3.321522433736624e-05
sVoverjoyed
p786
F7.955659837610378e-05
sVafresh
p787
F5.278087309415592e-06
sVsome
p788
F1.1853583909400889e-05
sVenvious
p789
F1.2415286596661434e-05
sVback
p790
F2.66382757702719e-06
sVheinous
p791
F1.9512392635764728e-08
sVpayable
p792
F6.4211899407049304e-06
sVunderstandable
p793
F0.0002458045240944083
sVdead
p794
F7.648292883663937e-05
sVroisin
p795
F8.38295945391556e-06
sVsustained
p796
F3.406399661496253e-05
sVremoved
p797
F6.629910452923229e-10
sVtrue
p798
F0.00034575148484506556
sVunderfunded
p799
F0.00020145248883402452
sVabsent
p800
F0.00011966844299610104
sVhigh-quality
p801
F7.51026730890285e-05
sVbraver
p802
F1.0365111740745517e-05
sVurgent
p803
F9.389630301071572e-05
sVinside
p804
F2.256928272865727e-06
sVmaximum
p805
F3.939033591864238e-05
sVruined
p806
F6.487932746857452e-06
sVtouchy
p807
F7.108719871627001e-05
sVinsincere
p808
F4.527164059878772e-06
sVunanimous
p809
F8.529951912107254e-05
sVheartening
p810
F8.559315816910068e-07
sVemotional
p811
F0.00018176705075846617
sVhorrifying
p812
F0.0006552088108441368
sVpanicky
p813
F0.0009547292144986432
sVjuvenile
p814
F0.0
sVproud
p815
F3.063831706727435e-05
sVhotter
p816
F1.4864254415272394e-05
sVclassic
p817
F0.002705883304020107
sVsinful
p818
F0.00044436161721653515
sVnovel
p819
F3.8032082225929153e-06
sVwretched
p820
F1.5792316647179306e-05
sVproven
p821
F3.990129589887091e-05
sVsale
p822
F3.473705713435618e-11
sVacclaimed
p823
F4.033126963806244e-06
sVbelievable
p824
F8.796083356220906e-05
sVmediocre
p825
F2.324009754474635e-05
sVannoying
p826
F0.00031000722220573553
sVvice-chairperson
p827
F1.026002621423255e-05
sVinjurious
p828
F3.582563908874955e-05
sVshit
p829
F3.319646645918982e-05
sVphysical
p830
F0.0007025337462616857
sVdiscriminate
p831
F9.84757245787222e-06
sVfaithful
p832
F8.432592287307627e-06
sVdying
p833
F5.461240918085843e-06
sVeerie
p834
F0.00024469819644639144
sVauthoritative
p835
F2.1484042618075077e-05
sVstir-crazy
p836
F0.0002569567141448065
sVgenerally
p837
F2.1359224182944876e-05
sVhanded
p838
F1.231086618108066e-05
sVreality
p839
F1.2147971389682038e-05
sVanswerable
p840
F5.233391010217536e-06
sVgeographically
p841
F1.1701457996585339e-05
sVinterested
p842
F0.00016187992742686282
sVstagnant
p843
F8.333524226198434e-06
sVcomplicit
p844
F1.5058901746954164e-06
sVambitious
p845
F7.988678577486386e-06
sVmisleading
p846
F9.214686308558099e-05
sVshort-term
p847
F7.90243136394998e-06
sVsuperfluous
p848
F0.00027872703333184167
sVroll
p849
F1.5526124066314005e-05
sVunbalanced
p850
F1.3920635197488765e-05
sVtasteful
p851
F0.0
sVsavage
p852
F2.0361274527581546e-05
sVformally
p853
F2.2001006199727955e-06
sVsnarky
p854
F0.0
sVpreceding
p855
F2.6223160213602093e-05
sVwelcome
p856
F9.037344404910002e-05
sVconvincing
p857
F9.038068493880682e-07
sVpolite
p858
F1.592212350747774e-09
sVunwell
p859
F1.9155247539342237e-05
sVinvested
p860
F1.6627615285073286e-07
sVvariable
p861
F0.0
sVdense
p862
F1.231086618108066e-05
sVhurt
p863
F0.0001845744622750157
sVdied
p864
F1.2732819054639153e-05
sVyounger
p865
F2.6822356192719358e-05
sVallright
p866
F0.00015872535190045785
sVopen-minded
p867
F2.7854881313797448e-05
sVdaily
p868
F1.231086618108066e-05
sVwell-designed
p869
F3.094285979241753e-06
sVloyal
p870
F1.8364565216205324e-05
sVgood-natured
p871
F7.010604997607397e-05
sVwell-filled
p872
F1.1951344553517463e-06
sVtime
p873
F3.106221307267637e-05
sVserious
p874
F0.0006012237379151568
sVdebate
p875
F2.4831914205646427e-05
sVrestored
p876
F1.231086618108066e-05
sVoverdue
p877
F2.5913403441683328e-05
sVionely
p878
F3.3395300020156506e-05
sVrehearse
p879
F2.727506922764558e-05
sVmanaged
p880
F5.1435046198106214e-06
sVregrettably
p881
F6.5447365299621685e-06
sVremarkable
p882
F0.0046959188496990285
sVglobal
p883
F3.1995306833439496e-05
sVtask-oriented
p884
F4.181582376350798e-06
sVmild
p885
F0.00015543652046898226
sVgrateful
p886
F9.218527828969437e-05
sVspaced
p887
F0.0
sVabundant
p888
F4.911237946980897e-05
sVtargeted
p889
F4.942672350164006e-06
sVtenable
p890
F0.002542402753084683
sVseasick
p891
F0.00011582711669283198
sVcertainly
p892
F2.3448870126847917e-05
sVuneven
p893
F0.00010128146503064157
sVyummy
p894
F0.0003326707646917631
sVeverything
p895
F2.597417119447556e-05
sVdisgusting
p896
F0.0009071486480430696
sVenvironment
p897
F5.906879311917996e-05
sVfinally
p898
F1.0449846716325876e-05
sVunpleasant
p899
F0.0002128445302615445
sVpermanently
p900
F2.7291596587086456e-06
sVknackered
p901
F1.144669418672191e-05
sVanalogous
p902
F1.8303050144647526e-05
sVoverwrought
p903
F2.935392240051094e-05
sVtenacious
p904
F3.658718287738548e-05
sVshoot
p905
F9.346385459839887e-06
sVpursuant
p906
F1.8723698352398884e-06
sVsloppy
p907
F3.960317753115674e-05
sVuntenable
p908
F0.005159884287650819
sVsappy
p909
F7.988217136888343e-05
sVcentralized
p910
F1.6553465030934857e-05
sVanonymous
p911
F4.322481254277419e-05
sVadvised
p912
F4.784388727041555e-06
sVlocked
p913
F5.660934647558889e-06
sVfullest
p914
F2.213013607739628e-05
sVfifty
p915
F0.0
sVexact
p916
F6.163409453934494e-05
sVfeeble
p917
F7.99203464537467e-05
sVminute
p918
F5.075330629003502e-05
sVcool
p919
F0.0016680433892369815
sVdim
p920
F3.623844160199133e-06
sVflammable
p921
F1.231086618108066e-05
sVimpressive
p922
F0.0022872600728128596
sVlevel
p923
F3.312307590239387e-05
sV-good
p924
F1.484642672956495e-05
sVregistered
p925
F9.462940498093629e-10
sVcloudy
p926
F1.231086618108066e-05
sVleave
p927
F2.3930984243691868e-05
sVdiscrete
p928
F1.0829774463133737e-05
sVwarmth
p929
F3.323309804721759e-05
sVquick
p930
F9.132654674330395e-05
sVround
p931
F1.294253940497677e-05
sVunaware
p932
F3.0748856759910965e-06
sVdistasteful
p933
F3.2783662936254714e-05
sVbrave
p934
F0.0002854356913098775
sVslower
p935
F0.00011085257565089829
sVill-conceived
p936
F1.8274172536564627e-06
sVinsignificant
p937
F0.00036997055542877595
sVobsolete
p938
F8.261913504719905e-06
sVcomforting
p939
F7.976576047104537e-05
sVravenous
p940
F8.111128481174316e-06
sVhelpless
p941
F0.0002608556922878522
sVrough
p942
F0.0007005719070922152
sVirritated
p943
F5.463016319138839e-05
sVstressful
p944
F0.0002734379923091243
sVunder-age
p945
F7.746294631797062e-06
sVcelebrated
p946
F2.1617098309735058e-05
sVrationalized
p947
F3.347313900042357e-05
sVuniform
p948
F1.678448945889515e-05
sVcurrent
p949
F9.142162196576526e-05
sVsuspect
p950
F0.00019130106285684625
sVlong-standing
p951
F5.031686453610287e-05
sVtime-consuming
p952
F8.565469517246021e-05
sVunrestricted
p953
F2.7389788016387344e-05
sVcommensurate
p954
F1.3788861625475318e-05
sVfreaky
p955
F0.0003678935049860894
sVparadoxical
p956
F9.028125160946917e-05
sVhairy
p957
F8.637352442801723e-05
sVunsure
p958
F1.5724435003816524e-05
sVtransparency
p959
F1.3937996829159102e-05
sVefficacious
p960
F2.4475566490290063e-05
sVassertive
p961
F1.1512428606345328e-05
sVfrench
p962
F3.6844939131634006e-05
sVunderstanding
p963
F6.040552378170721e-06
sVunanimously
p964
F7.964806018038988e-05
sVcrippled
p965
F2.5742009393025778e-05
sValone
p966
F6.739738994678995e-05
sVdisappeared
p967
F2.831287325443328e-06
sVenvironment-friendly
p968
F0.0002674000582539762
sVmomentous
p969
F3.344105895499946e-05
sVwait
p970
F2.958649062060211e-06
sVboy
p971
F0.0
sVunidentified
p972
F2.273861577039353e-05
sVnoticeable
p973
F0.002495527685595639
sVbrilliant
p974
F0.004118173712240785
sVspontaneous
p975
F8.184387677422772e-06
sVfunded
p976
F3.2338714221211295e-06
sVglobalization
p977
F8.04907312742866e-06
sVburdensome
p978
F0.00022809816301604338
sVineffective
p979
F7.31845533947667e-05
sVusually
p980
F8.702437015558768e-06
sVpriceless
p981
F0.001510376782752083
sVweird
p982
F0.0013391797213477446
sVmuscovite
p983
F1.7714487211484513e-06
sVall-out
p984
F9.945571109686305e-06
sVgenuinely
p985
F8.273915639477085e-06
sVbreathtaking
p986
F0.001099226496245705
sVinsolent
p987
F3.921477285417084e-05
sVconfidentiality
p988
F5.847866409790221e-07
sVextra
p989
F4.207047813380307e-05
sVproblematic
p990
F0.00041525354464618143
sVmerely
p991
F2.9744690255600556e-05
sVhiv-positive
p992
F3.5339750037477675e-06
sVmarked
p993
F1.4661530779058332e-10
sVspecified
p994
F8.954122242158441e-05
sVmarvelous
p995
F0.0024630229774211484
sVflexibility
p996
F9.620517723833486e-06
sVself-sufficient
p997
F2.100109401790383e-05
sV1st
p998
F2.520142784064432e-05
sVatrocious
p999
F0.0004515327082590369
sVrarely
p1000
F6.00549512773555e-05
sVremediated
p1001
F1.231086618108066e-05
sVultra-hazardous
p1002
F3.972384615345961e-06
sVsympathetic
p1003
F2.9477273615429002e-05
sVvivid
p1004
F4.1368039290194546e-05
sVworking
p1005
F1.3344318253380667e-09
sVhomesick
p1006
F1.231086618108066e-05
sVpositive
p1007
F0.00022982275820549193
sVangry
p1008
F0.0001612218017496653
sVby
p1009
F3.0208703408656483e-05
sVlive
p1010
F2.9489777316895636e-05
sVopposed
p1011
F6.592179815682396e-06
sVcuter
p1012
F8.388666175181956e-05
sVtheoretical
p1013
F2.1187603018268094e-05
sVtoday
p1014
F4.18300004828774e-06
sVwicked
p1015
F0.0009847427062103853
sVunwarranted
p1016
F0.0006651137445019555
sVacceptable
p1017
F0.002992453518764711
sVapparent
p1018
F0.00027152577062268654
sVwell-lit
p1019
F1.231086618108066e-05
sVstate-funded
p1020
F4.2792672063382084e-07
sVodious
p1021
F0.00010559365685643853
sVvisual
p1022
F1.0686429276203737e-07
sVrigid
p1023
F5.120647227641147e-05
sVfirst-hand
p1024
F3.7059907946682116e-06
sVeasiest
p1025
F0.00026597101697413346
sVmid-sized
p1026
F8.210200745133133e-06
sVvalued
p1027
F1.4948519875956292e-09
sVanything
p1028
F0.00029924723199507147
sVpretend
p1029
F1.8135004894436067e-10
sVmodified
p1030
F2.082887160711903e-09
sVlongitude
p1031
F1.2026928425911703e-10
sVexhilarating
p1032
F8.370740615667346e-05
sVinstable
p1033
F0.00022610620341032673
sVhardest
p1034
F0.0006207653822207876
sVsour
p1035
F1.1013347769634919e-05
sVamiss
p1036
F8.012896435173149e-05
sVgrowing
p1037
F0.0001978070775599677
sVbatty
p1038
F1.0365059916482459e-05
sVdeceased
p1039
F2.2852111470730454e-05
sVnearest
p1040
F0.0
sVdedicated
p1041
F1.231086618108066e-05
sVgrouchy
p1042
F1.6414496068478805e-05
sVsmall-time
p1043
F7.455959794090894e-06
sVgarbled
p1044
F1.231086618108066e-05
sVexpanding
p1045
F4.5660936040897495e-05
sVawesome
p1046
F0.005710741862482838
sVconfused
p1047
F9.639708515706549e-05
sVtopic
p1048
F3.0098197460557833e-06
sVheard
p1049
F3.764570142018423e-05
sVbattered
p1050
F0.0
sVdistinguishable
p1051
F8.86827706201589e-06
sVcraze
p1052
F0.00020420711253881432
sVill-treated
p1053
F2.2164001802290606e-05
sVproductive
p1054
F8.952692829297347e-05
sVbankrupt
p1055
F3.2899054633195244e-05
sVdiscussion
p1056
F2.0717540071079477e-05
sVdelirious
p1057
F0.0001348895960265781
sVinnumerable
p1058
F1.0375354179624332e-05
sVvital
p1059
F0.0002693249008220502
sVcardinal
p1060
F6.003780552653477e-05
sVactual
p1061
F8.273970797996257e-06
sVfourth
p1062
F0.00011550044255252845
sVsignificant
p1063
F0.0011410814118829697
sVoptimal
p1064
F0.00015722551710748515
sVallowable
p1065
F5.646343294551319e-06
sVpathway
p1066
F1.231086618108066e-05
sVunbelievable
p1067
F0.012363751644601982
sVparamount
p1068
F0.0002920070052711882
sVirrational
p1069
F2.288890891918346e-05
sVinformation
p1070
F5.006834212024977e-11
sVimpartial
p1071
F1.0163339494962683e-06
sVbroadest
p1072
F0.00021453326547796233
sVpraiseworthy
p1073
F3.8963123973694896e-05
sVprimordial
p1074
F4.1620937404150706e-05
sVdesigned
p1075
F2.36919352563245e-05
sVimproving
p1076
F5.925482942069654e-06
sVdrastic
p1077
F4.466309063326055e-05
sVsuck
p1078
F1.8275075641091708e-05
sVdestructive
p1079
F0.0
sVguys
p1080
F0.00022512641180164706
sVnon-toxic
p1081
F1.297862293091844e-07
sVegotistical
p1082
F4.9480959302467114e-06
sVdisagreeable
p1083
F8.111588729570545e-05
sVcosteffective
p1084
F4.610990214875704e-05
sVnatural
p1085
F0.00014059864610095624
sVliquid
p1086
F0.0
sVconscious
p1087
F2.8042212601356774e-05
sVlong-range
p1088
F4.8065018824874695e-06
sVslightly
p1089
F4.964843683084029e-05
sVexplicit
p1090
F2.760610847453667e-05
sVnosey
p1091
F0.00018266376454271016
sVfluent
p1092
F9.415088145672556e-05
sVrather
p1093
F2.8966858883500278e-05
sVthorny
p1094
F5.683572717720722e-06
sVso
p1095
F0.00039080022435106134
sVafrican
p1096
F5.710850811914725e-08
sVtall
p1097
F0.00036492767708944595
sVlabour-intensive
p1098
F1.4886703531393943e-06
sVdrunken
p1099
F1.231086618108066e-05
sVcute
p1100
F0.000495662444584642
sVinnocuous
p1101
F4.836706125230802e-05
sVnoteworthy
p1102
F0.001587838184912736
sVshaky
p1103
F0.00024916573345851395
sVmainly
p1104
F7.68527429247771e-06
sVunacceptable
p1105
F0.011616946593541795
sVcharacteristic
p1106
F1.801200925811844e-05
sVcourse
p1107
F2.0829865076302587e-05
sVcold
p1108
F0.00018239228112286126
sVstill
p1109
F0.00016768660323766116
sVlovelier
p1110
F0.00015653335648883605
sVsacrosanct
p1111
F0.0
sVconstituted
p1112
F1.0834403256006665e-10
sVthank
p1113
F3.874055750204953e-06
sVlackluster
p1114
F1.0309079592737053e-05
sVinteresting
p1115
F0.00037140469504339446
sVamazing
p1116
F0.004228433439759857
sVunprejudiced
p1117
F0.0
sVbad-looking
p1118
F0.0001084670394376554
sVconsequential
p1119
F2.142475189537094e-05
sVcoordinated
p1120
F1.0846811799645566e-05
sVextirpated
p1121
F2.685530809124425e-07
sVmain
p1122
F0.0003114516689803972
sVhappened
p1123
F3.939007332252595e-05
sVnouveau
p1124
F1.746365496400167e-06
sVnon
p1125
F5.006884280367078e-06
sVlonely
p1126
F7.424671819125447e-05
sVfuller
p1127
F2.9183580841787806e-05
sVdisparate
p1128
F5.635065850856612e-06
sVsmarter
p1129
F0.00019606164275532038
sVexecutory
p1130
F4.251266581945513e-05
sVsooner
p1131
F7.729264570664358e-05
sVmoron
p1132
F6.467997831295624e-06
sVqualified
p1133
F4.583344383369429e-05
sVwell-suited
p1134
F6.109415564998612e-09
sVunimpressive
p1135
F0.0
sVwealthy
p1136
F1.1113697850850682e-05
sVthus
p1137
F1.9399030823252516e-06
sVnow
p1138
F2.892131702132745e-05
sVprovision
p1139
F7.5644050201980295e-06
sVordinary
p1140
F0.00022638630963616355
sVmatched
p1141
F1.0720793481174863e-05
sVterm
p1142
F2.0411893781061943e-05
sVfirst-rate
p1143
F0.0008308237584664237
sVbetter-quality
p1144
F8.100712052980478e-07
sVrespectable
p1145
F0.0001337653496237497
sVscarcer
p1146
F5.43619409681438e-05
sVtruthful
p1147
F7.013866529665762e-05
sVunexceptable
p1148
F0.0003812917090671439
sVrealistic
p1149
F5.674961003908491e-05
sVwealthier
p1150
F1.7188147725025584e-05
sVrock
p1151
F9.346092960258852e-06
sVentirely
p1152
F4.455874178874518e-05
sVweighted
p1153
F0.0
sVunproductive
p1154
F7.066955865617167e-06
sVunachievable
p1155
F0.0003814226587889708
sVchallenged
p1156
F1.5703529990646722e-05
sVkane
p1157
F1.231086618108066e-05
sVabnormal
p1158
F6.241041264073523e-05
sVyeah
p1159
F5.695574311711781e-05
sVimpolite
p1160
F0.0
sVchallenges
p1161
F5.683601135015941e-06
sVyear
p1162
F2.4179239510256133e-08
sVa-okay
p1163
F0.00011047772176621654
sVubiquitous
p1164
F8.581588524871194e-05
sVgirl
p1165
F4.403306749509211e-06
sVworried
p1166
F0.0001314810155275977
sVsmall-scale
p1167
F9.902376644316855e-06
sVgiddy
p1168
F3.2130624089193856e-05
sVliving
p1169
F4.0476014533664884e-05
sVdrier
p1170
F9.847575730494765e-06
sVopened
p1171
F1.7704293163410836e-05
sV3rd
p1172
F7.68527429247771e-06
sVfurthermore
p1173
F5.006924334880536e-06
sVenvironmentally-friendly
p1174
F0.0004726639810752801
sVlooking
p1175
F3.8317731074847286e-05
sVseriously
p1176
F0.0004943230394243096
sVnominal
p1177
F1.9278641411437093e-05
sVimperative
p1178
F0.00023068581272069625
sVemerged
p1179
F1.707700976639532e-11
sVviable
p1180
F0.0008741809751457748
sVtechnology-neutral
p1181
F0.0
sVadvantaged
p1182
F4.863143036804962e-10
sVsonny
p1183
F7.902391852780972e-06
sVdisrespect
p1184
F2.5931079517675162e-05
sVcomplicated
p1185
F0.0003641142282154383
sVemblematic
p1186
F1.231086618108066e-05
sVwell-controlled
p1187
F1.853922167007224e-05
sVracked
p1188
F0.0
sVominous
p1189
F2.4880023535204437e-05
sVmarine
p1190
F5.006884280367078e-06
sVinevitable
p1191
F0.00015485997035880153
sVrepayable
p1192
F7.322798498892333e-06
sVirresponsible
p1193
F0.00075531249394397
sVgood-iooking
p1194
F0.0002488131773440029
sVwrong
p1195
F0.0031615330984300313
sVhonest
p1196
F0.00019174224450893137
sVbest-known
p1197
F3.6213493109656403e-06
sVindustrialised
p1198
F0.0
sVundesirable
p1199
F0.0004659920294551509
sVbothersome
p1200
F8.493355881045709e-05
sVmisused
p1201
F3.540715734931231e-05
sVfrequent
p1202
F0.00017148543528692706
sVfirst
p1203
F0.00017742400053748924
sVblind
p1204
F2.285694790664264e-05
sVconstantly
p1205
F3.968249970489332e-05
sVstriking
p1206
F0.00201522827093842
sVincongruous
p1207
F9.095082948578011e-05
sVsymbolic
p1208
F1.231086618108066e-05
sVyourself
p1209
F2.6052648429890773e-05
sVbetter-iooking
p1210
F0.00041697365772151143
sVtemporarily
p1211
F0.0
sVsimplified
p1212
F0.00011754173629987368
sVlong
p1213
F0.00047091737746448594
sVdirectly
p1214
F8.89215698207022e-06
sVimpossible
p1215
F0.011066300398038747
sVunattainable
p1216
F3.939033591864238e-05
sVopen
p1217
F0.00015867868080506398
sVcheesy
p1218
F8.212833502275685e-05
sVgiven
p1219
F5.305911545600535e-05
sVnecessarily
p1220
F6.602737789206872e-05
sVchecked
p1221
F7.988936743928703e-10
sVsilent
p1222
F6.266737104283491e-05
sVcategorical
p1223
F3.5339750037477675e-06
sVstructured
p1224
F1.634467208648908e-05
sVcallous
p1225
F0.00038430018996771757
sVcompulsory
p1226
F2.1121351356136253e-05
sVpsychotic
p1227
F0.0004521776018926408
sVcost-effectively
p1228
F0.00013402434913480272
sVcrystal-clear
p1229
F1.565995359352239e-05
sVtragic
p1230
F0.00047051742669759446
sVterrifying
p1231
F0.0008820019055383915
sVcost-effective
p1232
F0.0003760616051208124
sVwhite
p1233
F7.0843180668443345e-06
sVspeaking
p1234
F5.409462114034194e-05
sVokey-dokey
p1235
F1.386195865576512e-05
sVscience-based
p1236
F1.1209550156868725e-05
sVinefficient
p1237
F2.187938477510311e-05
sVmostly
p1238
F4.235706178733457e-05
sVthat
p1239
F9.754329420629172e-05
sVfreer
p1240
F1.4838724188635082e-05
sVcontinuous
p1241
F4.7058585805322933e-05
sVhuh
p1242
F2.2783561729677945e-05
sVreleased
p1243
F2.3854806904815194e-05
sVridiculous
p1244
F0.0004340116352165892
sVlengthier
p1245
F9.010583886339562e-06
sVdistributed
p1246
F9.199052453373277e-06
sVoccurring
p1247
F4.978705488430966e-05
sVthan
p1248
F0.00013702387866221838
sVspecify
p1249
F0.0
sV10
p1250
F0.0
sVrugged
p1251
F0.00023723480076305676
sVunfortunately
p1252
F0.0
sVself-employed
p1253
F1.4123283451217276e-05
sVdepressed
p1254
F4.429930285667538e-05
sVscrumptious
p1255
F0.0001382876487274373
sVgotta
p1256
F1.1190665851379662e-05
sVprotected
p1257
F6.855961044180625e-07
sVall-inclusive
p1258
F2.4061455950663183e-05
sVaesthetic
p1259
F2.859254220167696e-10
sVaccessed
p1260
F6.488345038043527e-05
sVgigantic
p1261
F0.0003010408726564937
sVmeticulous
p1262
F1.4155113018104365e-05
sVproactive
p1263
F6.27687766344701e-05
sVquestionable
p1264
F0.0008764762757553017
sVtroublesome
p1265
F0.00015602178866423695
sVcontentious
p1266
F3.724422231621666e-05
sVarmored
p1267
F2.462173236216132e-05
sVnicer
p1268
F0.0008148997584706083
sVsal
p1269
F1.231086618108066e-05
sVlow
p1270
F0.000316706095038175
sVpro
p1271
F1.6584168273652144e-06
sVpremier
p1272
F8.512652171259944e-06
sVturned
p1273
F1.7714487211484513e-06
sVsad
p1274
F0.0011168238748746036
sVprestigious
p1275
F1.4774169722078022e-05
sVsay
p1276
F3.874055750204953e-06
sVduty-bound
p1277
F0.0
sVinsatiable
p1278
F9.805897475692198e-06
sVoccupied
p1279
F5.231596421191861e-06
sVany
p1280
F2.0168634463093216e-05
sVdeserted
p1281
F6.111981604809725e-11
sVsquat
p1282
F2.7628541204386293e-05
sVabysmal
p1283
F1.3215019451416672e-05
sVcheerful
p1284
F0.0
sVefficient
p1285
F0.0004183663104485999
sVshocked
p1286
F0.0002268170161174433
sVterrific
p1287
F0.007880211810553055
sVendangered
p1288
F3.9867381992043956e-05
sVfiine
p1289
F4.550681005166146e-05
sVpotential
p1290
F1.989981923751953e-05
sVobjective
p1291
F1.4774159904289079e-05
sVresponsibility
p1292
F5.233355510364936e-06
sVpersonalized
p1293
F6.15543309054033e-06
sVblunt
p1294
F4.7831826203822964e-05
sVswitching
p1295
F0.0
sVflattered
p1296
F1.231086618108066e-05
sVbegin
p1297
F1.4903886229265777e-05
sVcommonplace
p1298
F0.0002378525365927623
sVprick
p1299
F6.467965492114973e-06
sVnormal
p1300
F0.00018385544484092196
sVclearer
p1301
F0.0003300545082154221
sVpaid
p1302
F2.117453105542118e-05
sVn'tunderstand
p1303
F6.311649488615668e-06
sVimportantly
p1304
F2.1547566371774504e-05
sVpurty
p1305
F0.0002838182095243144
sVamerica
p1306
F6.874948481055189e-06
sVcreditable
p1307
F9.4497337190467e-06
sVconspicuous
p1308
F0.00013801469836892519
sVforever
p1309
F1.231086618108066e-05
sVviewable
p1310
F9.723956789542502e-06
sVespecially
p1311
F0.00016893320898181012
sVsurprising
p1312
F0.002030074165483031
sVconsidered
p1313
F5.16507651151631e-06
sVinternational
p1314
F0.0
sVaverage
p1315
F2.2001006199727955e-06
sVlater
p1316
F4.1931260460665394e-05
sVsteady
p1317
F8.692048215000917e-05
sVhungry
p1318
F6.009423163196892e-05
sVawareness-raising
p1319
F3.0748856759910965e-06
sVsubsequent
p1320
F1.540029380732271e-07
sVjittery
p1321
F2.935392240051094e-05
sVprofessional
p1322
F5.469751562807143e-05
sVsenior
p1323
F0.00022990130005390218
sVgender-neutral
p1324
F2.2914438239657644e-07
sVtypically
p1325
F1.5315060671884066e-05
sVprecise
p1326
F0.0002185978110903719
sVmonstrous
p1327
F0.00029010764245666746
sVshot
p1328
F0.0
sVmuchfor
p1329
F7.76462920367226e-06
sVcheap
p1330
F0.00019784755311475353
sVcontemporary
p1331
F8.428042348712368e-07
sVright-handed
p1332
F1.231086618108066e-05
sVbright
p1333
F0.0005953862333094959
sVheart-warming
p1334
F3.8963256478094804e-05
sVinconsistent
p1335
F0.00016998024128622266
sVsouthwestern
p1336
F1.548271253600519e-05
sVscarce
p1337
F0.0008635667793543144
sVaggressive
p1338
F3.4550009161605556e-05
sVmultifaceted
p1339
F1.6417098458344626e-05
sVslow
p1340
F4.8455194014739925e-05
sVpunchy
p1341
F6.467965492114973e-06
sVenough
p1342
F0.0009050672997097429
sVself-supporting
p1343
F7.660877743281319e-05
sVonly
p1344
F8.048515965737653e-05
sVgoing
p1345
F1.813518624448494e-05
sVblack
p1346
F1.720138877927738e-05
sVequipped
p1347
F1.5834914787999346e-10
sVuppermost
p1348
F9.367236602125239e-05
sVdemand-driven
p1349
F0.0
sVdispute
p1350
F0.00019052153342892947
sVgroovy
p1351
F6.944491869369567e-05
sVdissimilar
p1352
F3.7193721360078754e-05
sVget
p1353
F1.8135004894436067e-10
sVroutine
p1354
F2.9321820092637865e-05
sVfreezing
p1355
F5.744125179860284e-05
sVtruly
p1356
F8.273915639477085e-06
sVsimplistic
p1357
F0.0006245131676645613
sVunimportant
p1358
F4.703024438932006e-05
sVinfallible
p1359
F5.226014456637586e-05
sVetcetera
p1360
F0.0
sVlighter
p1361
F0.00025037892885048274
sVhumbled
p1362
F1.1163235182794105e-05
sVthought-out
p1363
F1.1766568457441057e-06
sVunethical
p1364
F6.132096781874949e-05
sVclearest
p1365
F0.00013257188976144974
sVsecondary
p1366
F0.0005048976567764145
sVprime
p1367
F7.746294631797062e-06
sVdisabled
p1368
F4.664951947221864e-05
sVundemanding
p1369
F8.813156945041597e-06
sViovely
p1370
F0.00013293623920979748
sVseldom
p1371
F3.362445786705605e-05
sVtopnotch
p1372
F1.316429118401957e-08
sVail
p1373
F2.1432831971829462e-06
sVnaked
p1374
F1.231086618108066e-05
sVstupid
p1375
F0.00039114666051539014
sVliable
p1376
F5.350425550888139e-05
sVunappy
p1377
F3.2563307713231563e-05
sVworrying
p1378
F0.00012482250636272363
sVstaff
p1379
F3.422644041955153e-05
sVdeclared
p1380
F7.880127679393443e-11
sVphysically
p1381
F0.00010057220978905361
sVviolated
p1382
F0.0
sVpitch-black
p1383
F3.4402433537659725e-05
sVuneconomical
p1384
F6.406457675820173e-05
sVblurred
p1385
F1.6050703668388888e-05
sVrelative
p1386
F0.0001217502288300946
sVelected
p1387
F9.849554624929886e-06
sVactively
p1388
F1.3266554689649801e-05
sVasleep
p1389
F6.15543309054033e-06
sVculpable
p1390
F8.518936153176582e-07
sVunaltered
p1391
F1.4955264565048437e-05
sVaroused
p1392
F1.5886718201490152e-05
sVunderpaid
p1393
F5.227999751709294e-06
sVencouraged
p1394
F0.0
sVharmonised
p1395
F1.231086618108066e-05
sVsatisfying
p1396
F0.0001280575164748865
sVvoluntary
p1397
F1.4774159904289079e-05
sVsteadfast
p1398
F6.814513187137026e-05
sVlimber
p1399
F9.620517723833486e-06
sVunabated
p1400
F0.00019007047730481232
sValarming
p1401
F0.0010557034694555392
sVfascinated
p1402
F1.231086618108066e-05
sVdefinite
p1403
F7.460650494109863e-05
sVteeny
p1404
F6.144221035076772e-06
sVnorth-west
p1405
F1.4362665260724337e-05
sVoutside
p1406
F7.461542589051489e-05
sVlaborious
p1407
F6.651219721287791e-05
sVbetween
p1408
F2.3292627003775156e-10
sVsimplifying
p1409
F0.0
sVjustified
p1410
F0.0016128113966560624
sVaffordable
p1411
F0.00017956035089550874
sVoverly-high
p1412
F4.429556529274674e-05
sVlast-minute
p1413
F4.4161214984351325e-06
sVuseful
p1414
F0.00019040529716018786
sVfearless
p1415
F3.699639742658727e-05
sVself-serving
p1416
F3.527166407472846e-05
sVgood-looking
p1417
F0.0003261355120403213
sVs-sorry
p1418
F7.617211443855592e-05
sVfree-standing
p1419
F6.28378884114956e-06
sVall-embracing
p1420
F2.3249195950734666e-05
sVwell-protected
p1421
F0.0
sVcome
p1422
F1.8135004894436067e-10
sVgrieved
p1423
F1.755066515315389e-05
sVconcentrated
p1424
F6.650231007935792e-06
sVdiscernible
p1425
F1.8018180837608183e-05
sVtalented
p1426
F9.377052525874866e-08
sVpre-established
p1427
F5.278087309415592e-06
sVmany
p1428
F0.00024355674109894358
sVquiet
p1429
F0.00010098256514897089
sVuneconomic
p1430
F6.406436502165411e-05
sVunforeseen
p1431
F4.5137922341148476e-05
sVsketchy
p1432
F0.0001601685059794674
sVtraded
p1433
F9.112359176770644e-06
sVstupide
p1434
F6.4680209311086205e-06
sVnearby
p1435
F1.038116398947166e-05
sVyearly
p1436
F0.0
sVmadness
p1437
F3.101687673183731e-05
sVafterwards
p1438
F2.4270610269441583e-06
sVterse
p1439
F3.055725818583941e-05
sVeffective
p1440
F0.000452473837306558
sVinexplicable
p1441
F1.8125197272782182e-05
sV15-year-old
p1442
F6.950766435060623e-07
sVmaintained
p1443
F2.7136580861536732e-05
sVstrengthening
p1444
F0.00010113678464481162
sVadditionally
p1445
F5.006884280367078e-06
sVliberal
p1446
F5.27703100062511e-05
sVbizarre
p1447
F0.0003003948275925424
sVactually
p1448
F5.246926899469108e-05
sVlaudable
p1449
F0.00013455858117917126
sVbutthead
p1450
F6.467997831295624e-06
sVsensible
p1451
F0.0012254816496643796
sVunusual
p1452
F0.0012408443413787027
sVcapable
p1453
F6.684921753168525e-05
sVwest
p1454
F1.896863091554279e-10
sVinclusive
p1455
F0.000131648634247182
sVinformed
p1456
F9.619425464372931e-05
sValmighty
p1457
F5.258881658219616e-05
sVdependable
p1458
F1.2453493131191234e-05
sVeco-friendly
p1459
F9.33720972872601e-05
sVpeaceful
p1460
F6.449846801206093e-05
sVcompensatory
p1461
F2.1846515320455564e-06
sVbrisk
p1462
F0.0
sVbullshit
p1463
F0.00022567303243234836
sVmarty
p1464
F8.38299819408566e-06
sVeducated
p1465
F1.6162940053040888e-05
sVfucked-up
p1466
F8.597147569674168e-05
sVformed
p1467
F4.223191274696732e-06
sVreaching
p1468
F6.334048505336683e-10
sVth-that
p1469
F5.283112050435069e-09
sVdramatic
p1470
F0.0010568815244073764
sVsuspected
p1471
F0.00012044176036399472
sVextant
p1472
F2.8636689370227093e-05
sVsticky
p1473
F3.42630473350834e-09
sVirrelevant
p1474
F0.00048339532419401757
sVformer
p1475
F1.231086618108066e-05
sVcountless
p1476
F1.0375354179624332e-05
sVcase
p1477
F7.347891916563145e-09
sVspecialised
p1478
F1.9253130172396744e-05
sVmyself
p1479
F6.5447365299621685e-06
sVdeveloping
p1480
F1.4273788632850558e-11
sVthese
p1481
F1.0011479051060538e-05
sVwealthiest
p1482
F3.5088418092027015e-06
sVsingle
p1483
F0.00013632568982170672
sVpremature
p1484
F5.4395232295422945e-05
sVfiercer
p1485
F1.003202408206945e-05
sVhandicapped
p1486
F1.5836331237274807e-05
sVdorky
p1487
F0.0001321893175509465
sVmightier
p1488
F1.803382421219617e-05
sVslippery
p1489
F0.0002742328487172509
sVpromising
p1490
F5.30416545570949e-06
sVcancelled
p1491
F8.710398386794848e-06
sViil
p1492
F1.915519007428921e-05
sVimplacable
p1493
F6.3974560766582e-06
sVunsatisfactory
p1494
F0.0005735708901635452
sVeventually
p1495
F5.991878583356883e-06
sVsincere
p1496
F5.685187761997512e-05
sVfuzzy
p1497
F5.8006945671278664e-05
sVengaged
p1498
F1.7535040784171398e-06
sVdubious
p1499
F8.590018399061101e-05
sVsleeping
p1500
F6.15543309054033e-06
sVmiddle
p1501
F2.5005023592233112e-05
sVone-sidedly
p1502
F1.1638460508553929e-05
sVsudden
p1503
F0.00046972958459899936
sVironic
p1504
F0.0003251430062866576
sVgrievous
p1505
F6.650532800409281e-05
sVobnoxious
p1506
F0.00011239804506280083
sVkosher
p1507
F8.465979868126723e-05
sVdifferent
p1508
F7.933482139155896e-05
sVingrained
p1509
F4.85799104381607e-07
sVharsh
p1510
F0.0006401216338001316
sVdoctor
p1511
F8.38299819408566e-06
sVsmoother
p1512
F0.00013536897107689942
sVgranted
p1513
F5.278087309415592e-06
sVscientifically
p1514
F1.1209550156868725e-05
sVimmense
p1515
F0.0005558060130387244
sVsame
p1516
F9.22259474334624e-05
sVwreckable
p1517
F4.68485664816244e-05
sVconstructed
p1518
F1.1797587377113386e-10
sVinoffensive
p1519
F4.8367303082777476e-05
sVmoronic
p1520
F3.0752734792457355e-05
sVnoble
p1521
F6.876921369269613e-05
sVeven-handed
p1522
F0.00016755026675600496
sVclosest
p1523
F6.374574132019324e-05
sVrefusal
p1524
F5.683572717720722e-06
sVdisadvantaged
p1525
F3.61472017117147e-05
sVbulletproof
p1526
F6.15543309054033e-06
sVrunning
p1527
F5.440516618514183e-10
sVdelicate
p1528
F9.339121338855165e-05
sVunqualified
p1529
F0.0
sVchanging
p1530
F2.22252909452906e-05
sVcheery
p1531
F2.4377961562992764e-06
sVdiscernable
p1532
F1.7597627515672272e-05
sVdisputable
p1533
F3.2354814999774505e-05
sVpurer
p1534
F5.090058174256457e-06
sVthreaded
p1535
F1.231086618108066e-05
sVrebatable
p1536
F0.0
sVoversensitive
p1537
F4.49406574402036e-06
sVno
p1538
F4.433312009481602e-05
sVcustomized
p1539
F2.462173236216132e-05
sVsubstantive
p1540
F1.6852015703306708e-05
sVfrozen
p1541
F6.705239169227977e-05
sVsevere
p1542
F0.0008372980897703201
sVimmeasurable
p1543
F7.635733132934131e-05
sVluminous
p1544
F0.00012144439130266713
sVgrumpy
p1545
F8.207236293682511e-06
sVunconvincing
p1546
F2.4294124865702897e-06
sVuncomplicated
p1547
F9.226081566638995e-05
sVamazed
p1548
F9.915487552488312e-05
sVcharged
p1549
F1.0436612595093644e-09
sVdesolate
p1550
F6.5447365299621685e-06
sVmanifold
p1551
F1.7781816876155428e-05
sVpre-published
p1552
F1.0180297643901128e-05
sVbeing
p1553
F1.3115399121196136e-05
sVknowledgeable
p1554
F4.337732208937659e-05
sVinter-linked
p1555
F7.756497500113734e-05
sVvaluable
p1556
F0.0003908052795228546
sVunofficial
p1557
F0.0
sVviolent
p1558
F7.452084920937525e-05
sVunclear
p1559
F0.00011970295530017469
sVnon-binding
p1560
F2.1846515320455564e-06
sVflaccid
p1561
F1.0100844334588152e-05
sVimpractical
p1562
F0.00048556796697376257
sVinaudible
p1563
F1.231086618108066e-05
sVperilous
p1564
F5.6705137657743914e-05
sVblow
p1565
F3.034214878672943e-08
sVbi-directional
p1566
F0.0
sVclueless
p1567
F0.0
sVwidest
p1568
F0.0004797134930640846
sVvice-chair
p1569
F1.5389967743171014e-05
sVforward-looking
p1570
F9.84757245787222e-06
sVlifelong
p1571
F2.7291596587086456e-06
sVsenseless
p1572
F0.00029916272562494046
sVimprovement
p1573
F0.0
sVcomplements
p1574
F2.481051744707703e-05
sVextensive
p1575
F0.0005187543287296849
sVheavier
p1576
F0.0002188799759527949
sVjoyful
p1577
F2.1667707111386033e-06
sVdisproportionate
p1578
F0.00031644688830362154
sVscheduled
p1579
F1.2254128675622788e-05
sVaround
p1580
F3.20360735086325e-05
sVspectacular
p1581
F0.0014833565028218897
sVoutermost
p1582
F8.977783335991782e-06
sVover-ambitious
p1583
F1.3551989416024005e-06
sVgonna
p1584
F5.330404413774595e-05
sVdark
p1585
F0.0002043651413543825
sVawol
p1586
F2.685530809124425e-07
sVtraffic
p1587
F7.880127679393443e-11
sVdarn
p1588
F1.0607676899846386e-05
sVaccepted
p1589
F1.3704022825088824e-05
sVdisappointed
p1590
F7.84674164418139e-05
sVvague
p1591
F5.600929924846874e-05
sVsensational
p1592
F0.0008488167877438831
sVacute
p1593
F0.0001375673584019236
sVacquainted
p1594
F8.943003256092443e-05
sVstranger
p1595
F0.00015092602058551386
sVaction-oriented
p1596
F4.181582376350798e-06
sVnosy
p1597
F4.7065827561415314e-05
sVcollective
p1598
F4.696828471059583e-06
sVindisputable
p1599
F2.189876918173428e-05
sVtardy
p1600
F4.41611413833028e-06
sVwrongful
p1601
F1.905382991645193e-08
sVaudience
p1602
F1.1038145470690767e-05
sVwell-prepared
p1603
F2.9250250603125053e-05
sVeither
p1604
F1.449509105002866e-05
sVresolved
p1605
F9.847562640083287e-06
sVserved
p1606
F1.231086618108066e-05
sVdirtier
p1607
F4.3710797971256495e-05
sVpassionate
p1608
F7.448582241516699e-05
sVwell-received
p1609
F6.152378711166015e-05
sVtwelve
p1610
F0.0
sVsatisfactory
p1611
F0.00021128781493414995
sVexposed
p1612
F6.542982447194105e-10
sVpushy
p1613
F0.0
sVoverworked
p1614
F1.484228251622841e-06
sVsupplementary
p1615
F3.3262129848663025e-05
sVcalculated
p1616
F5.16504621717626e-06
sVmoreover
p1617
F6.672954316663438e-06
sV-me
p1618
F2.0717134789177915e-06
sVintact
p1619
F4.853813105006201e-05
sVextinct
p1620
F2.685530809124425e-07
sVbooming
p1621
F3.136049282508275e-06
sVprovided
p1622
F9.235304927552729e-05
sVperverse
p1623
F9.095081804130278e-05
sVunlocked
p1624
F1.4230552712918098e-05
sVriveting
p1625
F0.00015001150142696177
sVdrenched
p1626
F0.0
sVdefenceless
p1627
F1.5788571495250787e-05
sVslick
p1628
F0.00013568603378838001
sVlegal
p1629
F0.00015716753593560543
sVconservative
p1630
F6.660697375254162e-05
sVnutty
p1631
F0.0002995184575382351
sVtailor-made
p1632
F1.7714605306099574e-06
sVcritical
p1633
F0.0004454540554549455
sVmoot
p1634
F9.064868341835407e-05
sVclear-cut
p1635
F4.3200455583583316e-05
sVrefundable
p1636
F2.727506922764558e-05
sVdeceptive
p1637
F0.00010788335786117082
sVmoderate
p1638
F9.533261976282396e-05
sVwell-planned
p1639
F2.8239532967659282e-06
sVbiased
p1640
F1.1638460508553929e-05
sVfelt
p1641
F6.61334330165601e-08
sVhiv-infected
p1642
F3.5339750037477675e-06
sVintimate
p1643
F1.231086618108066e-05
sVmanufactured
p1644
F1.1797587377113386e-10
sVequivalent
p1645
F3.07695165098532e-05
sVnotable
p1646
F0.000637578610314608
sVmiscellaneous
p1647
F5.006884280367078e-06
sVnotably
p1648
F8.111128481174316e-06
sVuneasy
p1649
F0.0001598159973087599
sVdespicable
p1650
F1.577769372979935e-05
sVterrified
p1651
F4.1779242138504045e-05
sVexciting
p1652
F0.0021645189693649393
sVfinicky
p1653
F3.658718287738548e-05
sVrepeating
p1654
F7.322798498892333e-06
sVon
p1655
F2.286015968160532e-05
sVsubdued
p1656
F0.0
sVok
p1657
F0.00034344827282559387
sVof
p1658
F1.4678884229973125e-05
sVfavorite
p1659
F4.9914960006084186e-05
sVreinforcing
p1660
F0.00015792164110933356
sVslender
p1661
F1.2510558693037384e-05
sVpractical
p1662
F0.00030089665308362276
sVaddition
p1663
F3.3971995521120066e-05
sVpracticable
p1664
F0.0004002329364138247
sVdeterminable
p1665
F2.8861404360100566e-05
sVunderway
p1666
F2.544675669348007e-05
sVmixed
p1667
F0.0005310695819140407
sVmean
p1668
F1.668586888510862e-08
sVprovisional
p1669
F2.3135377794124795e-05
sVreferenced
p1670
F3.312127552453225e-05
sVmeagre
p1671
F0.000248754451587156
sVlong-lived
p1672
F3.403647527519538e-05
sVflawed
p1673
F6.362352962484548e-05
sVskilled
p1674
F4.12883917528387e-05
sVblessed
p1675
F6.219849932989326e-05
sVrising
p1676
F1.1797587377113386e-10
sVlively
p1677
F0.00019865418123043494
sVheated
p1678
F3.101672165133079e-05
sVelementary
p1679
F4.0552234053410985e-05
sVuptown
p1680
F2.958619475865464e-11
sVlastly
p1681
F0.0
sVtechnically
p1682
F0.0002193903883216486
sVher
p1683
F1.4618136553124251e-05
sVever-increasing
p1684
F0.00013722513907303132
sVthere
p1685
F2.0858379756367468e-05
sVhey
p1686
F0.0
sVstark
p1687
F0.000100486058007674
sVstart
p1688
F2.3308322112173703e-05
sVcompliant
p1689
F1.2764401979536324e-05
sVmissy
p1690
F3.7581305554535413e-06
sVuntapped
p1691
F1.231086618108066e-05
sVsealed
p1692
F1.5575215745767253e-06
sVresolute
p1693
F4.55942792328751e-05
sVdeposited
p1694
F4.711296248967802e-06
sVdecisive
p1695
F9.227184083541139e-05
sVhysterical
p1696
F0.0004722746782783034
sVallergic
p1697
F1.231086618108066e-05
sVcomplete
p1698
F0.0001082861078149505
sVvested
p1699
F5.278087309415592e-06
sVunsettled
p1700
F1.5724435003816524e-05
sVdelayed
p1701
F4.416125178503014e-06
sVsophisticated
p1702
F0.00016806040070623302
sVchange
p1703
F3.946349417958156e-10
sVtwo-thirds
p1704
F0.0006309628081246654
sVantiquated
p1705
F3.305082533051711e-07
sVattainable
p1706
F0.00025351926861302804
sVwith
p1707
F1.4774169722078022e-05
sVbelated
p1708
F4.4161214984351325e-06
sVhappening
p1709
F3.939007332252595e-05
sVabused
p1710
F1.4768301374923895e-10
sVarranged
p1711
F2.581676402914821e-09
sVromantic
p1712
F3.7389847706076866e-06
sVembedded
p1713
F2.1869584039569765e-06
sVreceptive
p1714
F6.201234287440438e-10
sVreasoned
p1715
F6.992460599071842e-06
sVbrain-dead
p1716
F0.00018985193573384815
sVdirty
p1717
F0.00031341659572962124
sViegitimate
p1718
F5.813545581593627e-10
sVabove-board
p1719
F0.00020811709873106668
sVpolitically
p1720
F9.81689116482407e-06
sVpowerless
p1721
F7.460011510235195e-05
sVdarker
p1722
F0.0002490358987780488
sVdetailed
p1723
F7.689636850460532e-05
sVgone
p1724
F4.9555612111249744e-05
sVrequired
p1725
F3.488350653112406e-05
sVflexibly
p1726
F9.620565825460034e-06
sVjohnny
p1727
F1.231086618108066e-05
sVgratuitous
p1728
F3.4737404504927384e-06
sVexhausted
p1729
F1.1400153780848945e-05
sVcertain
p1730
F6.28803148050015e-05
sVdeep
p1731
F0.0002093427328958511
sVgeneral
p1732
F0.00018643396357281023
sVas
p1733
F1.4112673564062242e-05
sVtasty
p1734
F0.00025662900709882183
sVtogether
p1735
F4.9008866019894e-05
sVcorresponding
p1736
F7.1680872671842946e-06
sVtedious
p1737
F4.70498750300691e-05
sVagain
p1738
F2.6039254437452836e-05
sVonerous
p1739
F0.0002137849334351058
sVideally
p1740
F1.2237143968365644e-08
sVidiot
p1741
F6.468022086104768e-06
sVadministered
p1742
F6.912123572911682e-06
sVluckier
p1743
F3.946211176708964e-05
sVvocational
p1744
F6.5569009530847256e-06
sVgraduate
p1745
F0.0
sVshort-sighted
p1746
F3.384361464386146e-05
sVtight
p1747
F0.00014651234091479136
sVvalid
p1748
F0.0004311462641105303
sVthought-provoking
p1749
F3.0283610446057633e-05
sVyou
p1750
F8.473143549002726e-05
sVincomprehensible
p1751
F0.00013928218909850667
sVwell-paid
p1752
F5.227999751709294e-06
sVdisgraceful
p1753
F0.002421997190589895
sVpoor
p1754
F0.00044510581342217256
sVrequested
p1755
F3.275847428489601e-06
sVbriefly
p1756
F1.6278287704144433e-05
sVdead-on
p1757
F2.7628541204386293e-05
sVineligible
p1758
F0.00033699578270913604
sVopen-ended
p1759
F2.9323031720331735e-05
sVobsessed
p1760
F1.0615747560165337e-09
sVseparate
p1761
F4.580251038964958e-05
sVstocky
p1762
F2.32054528584167e-05
sVimportant
p1763
F0.0013156196686187652
sVsuited
p1764
F1.6493351162753962e-05
sVfresh
p1765
F6.345383095680898e-05
sVincluded
p1766
F1.2994866261609123e-05
sVequitable
p1767
F7.322493355474484e-05
sVprudent
p1768
F0.00016909610857766905
sVconclusive
p1769
F0.00011078836513812581
sVtricky
p1770
F0.0007146365638561838
sVbooked
p1771
F3.783443879347362e-09
sVclinically
p1772
F3.3565103297421064e-06
sVomnibus
p1773
F8.513030305152949e-06
sVimprecise
p1774
F2.6347407972450375e-05
sVfoutu
p1775
F4.103440428613828e-06
sVunscathed
p1776
F1.1209550156868725e-05
sVsaved
p1777
F1.386195865576512e-05
sVexhausting
p1778
F1.231086618108066e-05
sVgross
p1779
F0.00028247679617341743
sVfraudulent
p1780
F0.0009923585659211323
sVpretentious
p1781
F1.231086618108066e-05
sVrecognising
p1782
F8.793299581760737e-06
sValright
p1783
F0.0006045261479454895
sVoral
p1784
F5.5559344595018835e-05
sVoriginal
p1785
F5.911835789549567e-06
sVinteroperable
p1786
F1.121413079277311e-05
sVall
p1787
F4.4317095384012174e-05
sVhateful
p1788
F6.913545599313456e-06
sVbreadth
p1789
F1.5147001329271365e-05
sVcrucial
p1790
F0.0004745347842955766
sVinvariable
p1791
F5.8201004505370495e-06
sVanti-constitutional
p1792
F3.985328310016442e-05
sVsplitting
p1793
F5.7006124613159277e-08
sVfounded
p1794
F6.241774194489053e-05
sVthoughtful
p1795
F0.00021334707148527537
sVsystemic
p1796
F3.227307059535941e-10
sVcooperative
p1797
F8.45423523829582e-06
sVmessy
p1798
F0.005406585897970584
sVcustomary
p1799
F3.026812777630758e-05
sVdebatable
p1800
F0.00012207464930793566
sVfaster
p1801
F0.00012501158593009623
sVreligious
p1802
F1.231086618108066e-05
sVgo
p1803
F2.8732055365915197e-05
sVarming
p1804
F6.15543309054033e-06
sVdreadful
p1805
F0.0013397023246513448
sVattentive
p1806
F1.6837559438587488e-05
sVeverywhere
p1807
F4.973547578451167e-06
sVstartled
p1808
F9.915504078109197e-05
sVfacultative
p1809
F9.84757245787222e-06
sVinexhaustible
p1810
F9.805897475692198e-06
sVextraneous
p1811
F5.4181531826311385e-05
sVto
p1812
F0.0002407891825255934
sVdeep-rooted
p1813
F1.4434406768420293e-06
sVmulti-faceted
p1814
F1.4443390148827034e-06
sVhideous
p1815
F0.00047704884361855396
sVimmutable
p1816
F9.909277541937635e-05
sVsound
p1817
F0.000495437607265418
sVcomercial
p1818
F3.4737404504927384e-06
sVworse
p1819
F0.002591134006291317
sVequivocal
p1820
F8.658373749666806e-05
sVfar
p1821
F0.0001798896528006725
sVfat
p1822
F0.00040553867376902483
sVcandid
p1823
F2.0712961077761958e-05
sVworst
p1824
F0.0014121618527475732
sVfall
p1825
F1.317948888999219e-10
sVawful
p1826
F0.0012497950490110968
sVefficacy
p1827
F7.287985303586992e-06
sVmanageable
p1828
F0.00025930097512919914
sVtiresome
p1829
F7.261727871456788e-06
sVgeneralised
p1830
F1.566296658549595e-05
sValien
p1831
F2.273861577039353e-05
sVsentimental
p1832
F1.3244734286468034e-05
sVproscribed
p1833
F9.847562640083287e-06
sVmarvellous
p1834
F0.003797856825226067
sVageing
p1835
F2.8985347088427777e-08
sVprolonged
p1836
F1.7155955995167947e-05
sVbone-dry
p1837
F0.0
sVlarge
p1838
F0.0007986373604592128
sVsane
p1839
F0.003763680658949921
sVunproblematic
p1840
F2.2525106717223595e-05
sVsalute
p1841
F3.874055750204953e-06
sVsmall
p1842
F0.0003133609750329254
sVeconomically
p1843
F3.2077943752995056e-05
sVquicker
p1844
F0.00025354666073335486
sVten
p1845
F0.0
sVcolossal
p1846
F0.00015723630697412466
sVcorrigendum
p1847
F1.6737057693405025e-05
sVhereto
p1848
F4.162634146515164e-06
sVbuilt-in
p1849
F0.0
sVpreposterous
p1850
F0.0001346551382914266
sVself-contained
p1851
F1.2466197578303279e-05
sV19
p1852
F6.950766435060623e-07
sVzero
p1853
F2.0330372727342382e-05
sVenhancement
p1854
F4.11526108918805e-05
sVfurther
p1855
F7.25670774169953e-05
sVfunctioning
p1856
F4.5727969181676006e-05
sVdestitute
p1857
F2.1844346814413752e-05
sVcasual
p1858
F3.849895504028737e-06
sVreturned
p1859
F4.6512142771686623e-07
sVimported
p1860
F7.410868681621485e-11
sVillogical
p1861
F9.329835436677938e-05
sVadvantageous
p1862
F9.450494573757552e-05
sVshort-lived
p1863
F0.00021723214977397402
sVpoisonous
p1864
F6.489376357924924e-08
sVbrief
p1865
F0.00013356310346209234
sVrun
p1866
F1.6687913067799975e-05
sVsuccinct
p1867
F7.902391852780972e-06
sVjudicious
p1868
F0.00012475806084419317
sVongoing
p1869
F8.402883126112652e-05
sVpublic
p1870
F5.958166905681163e-05
sVrevealing
p1871
F3.873147315511212e-11
sVoutgoing
p1872
F7.68527429247771e-06
sVfull
p1873
F0.00012502600865269597
sVchristian
p1874
F1.231086618108066e-05
sVsentient
p1875
F6.639026804907005e-06
sVunprofessional
p1876
F4.898459633911197e-06
sVloose
p1877
F0.0006620827275021259
sVfavourable
p1878
F0.00018745881441354305
sVinconsiderable
p1879
F0.00010713669367812724
sVselective
p1880
F1.231086618108066e-05
sVstrong
p1881
F0.0007299728105844525
sVthready
p1882
F4.817464079350966e-05
sVfatter
p1883
F4.2922816450341965e-05
sVidentifiable
p1884
F6.501081663778389e-05
sVexceptionally
p1885
F7.562712306251042e-06
sVcreepy
p1886
F0.0014319494100803187
sVwell-structured
p1887
F3.1661173100401804e-05
sVprior
p1888
F2.7112865910243703e-05
sVhealthier
p1889
F0.00017934584571660536
sVpublished
p1890
F2.0912414277920324e-05
sVheartbroken
p1891
F4.079027247355569e-05
sVnarrow
p1892
F4.2798815128202945e-05
sVweirder
p1893
F5.547709299882256e-05
sVelongated
p1894
F4.782545904708126e-05
sVsuddenly
p1895
F0.0002620108106922665
sVmarginal
p1896
F0.0005772318238299482
sVcosmetic
p1897
F4.83751420709895e-05
sVtrained
p1898
F4.5369878560782357e-07
sVuntraceable
p1899
F9.847562640083287e-06
sVarmed
p1900
F2.462173236216132e-05
sVnon-specific
p1901
F4.181731379469047e-05
sVhurtin
p1902
F9.702523587357111e-05
sVconventional
p1903
F0.0004308825584567563
sVproceed
p1904
F2.3338387925678443e-05
sVdistinct
p1905
F0.00015076512503485207
sVall-round
p1906
F7.69417225504492e-06
sVtwo
p1907
F2.06987388413867e-05
sValmost
p1908
F8.429856970485984e-05
sVnothingg
p1909
F2.7628541204386293e-05
sVfreest
p1910
F4.16773033655745e-06
sVhlv-positive
p1911
F3.5339750037477675e-06
sVgorgeous
p1912
F0.0017502775356672906
sVmysterious
p1913
F0.00019792628576652396
sVtacky
p1914
F4.183484108752023e-05
sVunthinkable
p1915
F0.013301035260780483
sVminor
p1916
F0.00029854150512179323
sVmore
p1917
F0.0005952988020983382
sVflat
p1918
F6.542088752745302e-06
sVunderprivileged
p1919
F3.895391795475925e-05
sVstaggering
p1920
F0.0035663367858934907
sVregrettable
p1921
F0.0002467936431479083
sVspoilt
p1922
F3.7902867657891604e-06
sVone-sided
p1923
F3.763531660179022e-05
sVinstrumental
p1924
F0.00012091103233136805
sVcommenced
p1925
F1.4419235148733671e-05
sVgrisly
p1926
F0.0001588128394883969
sVbasically
p1927
F1.1209550156868725e-05
sVbroke
p1928
F7.541241991774981e-06
sVparticular
p1929
F0.0003026138532992247
sVknown
p1930
F0.00017488736999945177
sVhurry
p1931
F1.5408324789796764e-05
sVnineteen
p1932
F6.950766435060623e-07
sVglad
p1933
F6.807207378858682e-05
sVpleasing
p1934
F1.8552252877186943e-10
sVhour
p1935
F1.231086618108066e-05
sVcanceled
p1936
F7.405662157088106e-06
sVshielded
p1937
F6.15543309054033e-06
sVlong-winded
p1938
F6.15543309054033e-06
sVdebated
p1939
F2.5314430715090054e-05
sVineffectual
p1940
F1.4591435910531632e-05
sVspecialized
p1941
F1.743763041372691e-05
sVself-conscious
p1942
F0.00017094387914992783
sVhistory
p1943
F6.766708725136341e-07
sVbeautiful
p1944
F0.0012788605708326268
sVstubborn
p1945
F4.2138242989094614e-05
sVembarrassing
p1946
F0.00056228617788546
sVwell-coordinated
p1947
F2.916965298981823e-06
sVlife-threatening
p1948
F0.00041232799993653823
sVstated
p1949
F7.148169257991725e-05
sVmeaner
p1950
F8.226664312384721e-06
sVprescriptive
p1951
F1.231086618108066e-05
sVsicker
p1952
F1.9155094300733253e-05
sVunbiased
p1953
F2.784908399790291e-07
sVminimum
p1954
F9.87198776219012e-05
sVsharp
p1955
F4.15081623517639e-05
sVlongest
p1956
F2.8015459273265728e-05
sVmainstream
p1957
F1.4504114244728122e-05
sV!
p1958
F1.634522469718671e-10
sVhuge
p1959
F0.000574995610717764
sVgoal
p1960
F9.84757245787222e-06
sVawkward
p1961
F0.0007604734006524747
sVlousy
p1962
F0.0003529398631631339
sVneedy
p1963
F7.41475361710875e-05
sVimminent
p1964
F2.4806503635524096e-05
sVpressing
p1965
F3.178601270747598e-05
sVdismissed
p1966
F0.0
sVunlucky
p1967
F4.300754823755526e-05
sVglowing
p1968
F0.00013778977945210074
sVsacred
p1969
F4.4580898102908804e-05
sVheadstrong
p1970
F9.092661779493032e-06
sVhopeless
p1971
F0.0010505314614630496
sVacknowledging
p1972
F1.1868185257751836e-05
sVokay
p1973
F0.0006531665364322727
sVintended
p1974
F3.15867545238503e-05
sVrude
p1975
F0.0005334587963941887
sVpetite
p1976
F3.7581305554535413e-06
sVhinky
p1977
F3.101672165133079e-05
sVbeastly
p1978
F0.00029010764245666746
sVdeath-proof
p1979
F6.874768945544508e-06
sVunsound
p1980
F7.2686719746508e-05
sVfast-growing
p1981
F3.3739480362947455e-05
sVcoming
p1982
F2.5067618094665137e-06
sVinconceivable
p1983
F0.16427477288477293
sVauthentic
p1984
F3.955729458790004e-05
sVundisputable
p1985
F7.765349360529043e-05
sVbleak
p1986
F0.0004165180533898325
sVa
p1987
F4.559561035848025e-06
sVsnotty
p1988
F1.231086618108066e-05
sVshort
p1989
F0.0003087905674916349
sVpreferential
p1990
F1.231086618108066e-05
sVcrowded
p1991
F9.134858389328511e-06
sVquoted
p1992
F3.312127552453225e-05
sVgroundless
p1993
F0.00017013270771200318
sVgeneric
p1994
F4.533122069865531e-05
sVgloomy
p1995
F0.0002484437652453133
sVnegligible
p1996
F0.00014983920168590726
sVskilful
p1997
F1.4311817879353034e-13
sVfundamental
p1998
F0.0002594280617773454
sVpitch-dark
p1999
F0.0
sVimpermissible
p2000
F0.0008507933225264033
sVgeographic
p2001
F1.1701457996585339e-05
sVcrafty
p2002
F4.233465270841921e-05
sVdepraved
p2003
F0.0
sVdeveloped
p2004
F3.136163171644354e-05
sVheartfelt
p2005
F6.26428753066957e-06
sVco-chairperson
p2006
F0.0
sVsoon
p2007
F3.90574029174161e-05
sVcarmela
p2008
F1.1111334180614778e-05
sVinstalled
p2009
F1.231086618108066e-05
sVwide-ranging
p2010
F0.0004241525755136146
sVheld
p2011
F6.08472953751347e-05
sVnaughty
p2012
F0.0001855636584492008
sVthrough
p2013
F2.35480319180028e-05
sVsupra
p2014
F3.688522665161268e-06
sVcommitted
p2015
F2.7181195157646086e-06
sVstone-cold
p2016
F8.85117106132709e-06
sVforgiving
p2017
F3.752943902771952e-05
sVunhealthy
p2018
F0.00011582621533733147
sVbummed
p2019
F1.721689106930387e-05
sVrapidly
p2020
F4.533544343181413e-06
sVprat
p2021
F6.467965492114973e-06
sVmistreated
p2022
F1.4768449057937582e-05
sVbeautifui
p2023
F0.00027397218669622406
sVcoarser
p2024
F2.0715761174776293e-05
sVfruitful
p2025
F3.954240470327007e-05
sVlate
p2026
F3.758399453606794e-05
sVharmless
p2027
F0.00025731375273362365
sVdisclosed
p2028
F3.4738192517695326e-06
sVattended
p2029
F2.663671821978091e-10
sVnifty
p2030
F5.1493105729432936e-05
sVself-aware
p2031
F3.0748856759910965e-06
sVbereft
p2032
F7.414650202297131e-05
sVfiner
p2033
F9.214049684637525e-05
sVfocussed
p2034
F0.0
sVhurting
p2035
F0.00010803864265435205
sVgood
p2036
F0.0011810196523112993
sVmotivated
p2037
F2.8381396589562048e-05
sVyo
p2038
F4.691844555088941e-05
sVunreal
p2039
F0.004590221619757386
sVanticipated
p2040
F3.9399060600727744e-05
sVshitless
p2041
F1.1773005951187921e-05
sVpermissible
p2042
F0.00046948035093523924
sVnon-compliant
p2043
F1.8723698352398884e-06
sVbigger
p2044
F0.0006125543422849296
sVlovable
p2045
F0.00011907369915885802
sVshifty
p2046
F2.677844124302633e-05
sVsubtler
p2047
F3.716150308829695e-05
sVfully
p2048
F4.033503854324897e-05
sVnauseous
p2049
F1.9155094300733253e-05
sVutilized
p2050
F5.048420032175376e-06
sVreaily
p2051
F0.0001352691771671939
sVgoofy
p2052
F0.00013571961489978047
sVstopped
p2053
F3.646360899433659e-06
sVaggrieved
p2054
F0.0
sVinherent
p2055
F1.9494316332070937e-05
sVshocking
p2056
F0.006506679747982322
sVintolerable
p2057
F0.04601199394883106
sVexquisite
p2058
F0.0016006739386234146
sVforthright
p2059
F2.3927940002485372e-05
sVheavy
p2060
F0.00013398915260230318
sVmisguided
p2061
F3.540715734931231e-05
sVeveryone
p2062
F4.856197178372449e-06
sVdelicious
p2063
F0.0003909384000082274
sVneedless
p2064
F3.839286138662966e-05
sVundetectable
p2065
F1.4774169722078022e-05
sVcolder
p2066
F5.5504716875539625e-05
sVhard
p2067
F0.0004359099543023864
sVpositioned
p2068
F2.4550511653798536e-08
sVwacky
p2069
F0.00010897890500625654
sVmodernized
p2070
F8.426078060120352e-07
sVexorbitant
p2071
F8.692396085566837e-05
sVirreconcilable
p2072
F4.3685221948983416e-06
sVpro-poor
p2073
F1.222666826534685e-05
sVwacko
p2074
F0.0001834499359512898
sVorganised
p2075
F1.4254545081063062e-05
sVreally
p2076
F0.00131391944451217
sVanxious
p2077
F0.00014294235746987563
sVfoolproof
p2078
F5.226014456637586e-05
sVpresumptuous
p2079
F1.231086618108066e-05
sVunnatural
p2080
F3.5406921307100515e-05
sVchildish
p2081
F0.000241352323544655
sVsurrounded
p2082
F7.321727713195592e-05
sVjolly
p2083
F4.054139477588785e-05
sVparticipants
p2084
F0.0
sVdarling
p2085
F0.00014024580118035282
sVinduced
p2086
F1.231086618108066e-05
sVissue
p2087
F6.698342411217052e-06
sVhard-pressed
p2088
F1.689637774217863e-05
sVuh-huh
p2089
F3.874055750204953e-06
sVmission-critical
p2090
F1.1212267778679105e-05
sVpathetic
p2091
F0.000290527974757117
sVfound
p2092
F1.231086618108066e-05
sVparched
p2093
F5.461240918085843e-06
sVmotherfucker
p2094
F3.0313859703722287e-05
sVlike
p2095
F5.6431912101361475e-05
sVpleasant
p2096
F0.00028779599478943597
sVextraordinary
p2097
F0.03789570055157439
sVreason
p2098
F1.5222201677673928e-05
sVbrightest
p2099
F0.00012144439130266713
sVdire
p2100
F0.0009250020718647614
sVvigorous
p2101
F0.0001609759880807968
sVecologically
p2102
F5.481426201629289e-05
sVlaughable
p2103
F5.757961120272168e-05
sVearliest
p2104
F1.801744335892012e-05
sVunresolved
p2105
F0.00011553977490529628
sVunbecoming
p2106
F7.276819878096189e-10
sV-sorry
p2107
F3.127894824093504e-05
sVannulled
p2108
F1.3047362297067416e-06
sVbroad-based
p2109
F0.00011769335229911519
sVterrible
p2110
F0.001877742927084963
sVamerican
p2111
F3.418946661448404e-05
sVjurisdictional
p2112
F1.5136566522370503e-05
sVexpedient
p2113
F0.00022587993891242482
sVmerry
p2114
F7.151950578934408e-06
sVindebted
p2115
F1.877853714779197e-06
sVmajor
p2116
F0.0006275063333211491
sVengagement
p2117
F4.31454743963392e-07
sVrooted
p2118
F6.595578835903928e-08
sVupper
p2119
F8.865118294282804e-05
sVradical
p2120
F7.64312964003782e-05
sVbelligerent
p2121
F7.388521143980553e-11
sVfancy
p2122
F0.0002440142779666633
sViucky
p2123
F2.9017843204000292e-05
sVwell-known
p2124
F5.5186858908145206e-05
sVfierce
p2125
F0.00019317238462973317
sVenlarged
p2126
F8.616977483116172e-05
sVunexpected
p2127
F0.001200472950117058
sVdone
p2128
F4.58035846836609e-05
sVblank
p2129
F4.7142728717445046e-05
sVnorth-east
p2130
F3.455663840809275e-06
sVsingle-ranked
p2131
F4.0565274792533795e-05
sVobligatory
p2132
F0.0
sV"
p2133
F0.0001372629801064223
sVstress-related
p2134
F0.0
sVbloodied
p2135
F6.017552713856256e-06
sVinexcusable
p2136
F0.0008118321709676263
sVtwenty
p2137
F6.950766435060623e-07
sVfinanced
p2138
F4.924346472432264e-05
sVtougher
p2139
F0.0013093398021771843
sVmoderately
p2140
F1.2001986955421468e-05
sVcomfy
p2141
F0.00011265886906905749
sVleast
p2142
F0.0002550317637251477
sVelegante
p2143
F2.2043676026533466e-06
sVexcitable
p2144
F7.169832229530606e-05
sVobtainable
p2145
F3.939007332252595e-05
sVomnipresent
p2146
F3.9259061466975943e-05
sVendearing
p2147
F0.0
sVwonderfui
p2148
F0.00044598436891906285
sVmama
p2149
F1.6345388149433615e-05
sVnigeria
p2150
F3.0550903488795634e-08
sVenchanting
p2151
F8.087067026778095e-05
sVmerciless
p2152
F1.3014342428292e-06
sVtoo
p2153
F0.00010794340173589419
sVtreasured
p2154
F0.0
sVrelieved
p2155
F2.066534931318178e-06
sVantsy
p2156
F2.106053070986122e-05
sVimmediate
p2157
F3.8575879816685885e-05
sVinconsequential
p2158
F3.874055750204953e-06
sVoff-putting
p2159
F9.754962262682252e-05
sVsizable
p2160
F1.977824820294395e-05
sVpart
p2161
F2.411639338283925e-08
sVnon-competitive
p2162
F2.073077909018061e-06
sVfavorable
p2163
F1.1270692781422785e-05
sVgruesome
p2164
F0.00024097014656137964
sVscaleable
p2165
F0.0
sVrampant
p2166
F0.00011173388053804974
sVrespendable
p2167
F1.1449354062818062e-05
sVkind
p2168
F1.5840065084347932e-05
sVstate-owned
p2169
F7.653316844372387e-05
sVdouble
p2170
F5.4604644885483794e-05
sVlargely
p2171
F1.2031953571146885e-05
sVoutrageous
p2172
F0.006547122376684804
sVdetermined
p2173
F5.995637297192127e-05
sVcontrary
p2174
F4.0997413320813326e-05
sVuncanny
p2175
F0.00036479403433689026
sVinsulted
p2176
F0.0
sVstale
p2177
F5.630266931161211e-06
sVtreated
p2178
F1.231086618108066e-05
sVrisky
p2179
F0.00012216887571310265
sVferociously
p2180
F8.756833105662848e-07
sVcleaner
p2181
F0.0004567222943760873
sVmotivation
p2182
F6.992460599071842e-06
sVvacant
p2183
F1.1431338140790185e-05
sVbad
p2184
F0.0013809280130753837
sVsubstantiated
p2185
F1.4920697559805995e-05
sVoutstanding
p2186
F0.0022991986292397867
sVurgently
p2187
F0.0
sVsuspicious
p2188
F0.0003557314846059349
sVwell-developed
p2189
F6.473227740320099e-06
sVaffirmative
p2190
F2.2198249115334907e-05
sVcattled
p2191
F4.103413072982164e-06
sVwell-written
p2192
F9.847562640083287e-06
sVsubstantial
p2193
F0.000954669586447708
sValike
p2194
F2.533152604116614e-05
sVcognizant
p2195
F3.394275473928666e-05
sVimperfect
p2196
F3.0225425721503692e-06
sVcumbersome
p2197
F0.0003970306673994643
sVnull
p2198
F5.6722872438056696e-09
sVsalutary
p2199
F1.8371443608894838e-05
sVvulnerable
p2200
F0.00032638749391998085
sVbriiliant
p2201
F0.0003622623564864094
sVsell
p2202
F1.231086618108066e-05
sVbuilt
p2203
F1.1797587377113386e-10
sVdestabilizing
p2204
F0.00017802985369637725
sVempowered
p2205
F1.4774169722078022e-05
sVaccountable
p2206
F7.1042619975996155e-06
sVheterosexual
p2207
F2.062028413808913e-05
sVlit
p2208
F1.231086618108066e-05
sVmoist
p2209
F3.085229313817683e-10
sVrecognizing
p2210
F1.609905435996352e-05
sVinternal
p2211
F2.963574747505847e-06
sVbarmy
p2212
F0.00021373357224455347
sVgeneralized
p2213
F2.276458363977273e-05
sVfrail
p2214
F2.4419789737708122e-05
sVaggravating
p2215
F5.108073428445733e-06
sVorderable
p2216
F6.878467445702008e-05
sVon-going
p2217
F1.0698627317988295e-05
sVinsufferable
p2218
F0.0013402436355044835
sVextensible
p2219
F1.231086618108066e-05
sVmarginalized
p2220
F1.019919793118493e-06
sVcontestable
p2221
F3.2354814999774505e-05
sVnon-compensatory
p2222
F2.1846515320455564e-06
sVmedium-sized
p2223
F8.210200745133133e-06
sVunused
p2224
F3.3050494825568988e-12
sVmost
p2225
F0.0003134328032090822
sVsponsored
p2226
F6.350243329570256e-11
sVunder-funded
p2227
F0.00020145248883402452
sVenduring
p2228
F3.406399661496253e-05
sVnothing
p2229
F0.00025675675630454234
sVdefensible
p2230
F0.0026604802747989967
sVfaint
p2231
F3.2530516274118436e-05
sVextremely
p2232
F0.0001043480592556059
sVapproved
p2233
F7.0890379613118345e-06
sVfunnier
p2234
F1.231086618108066e-05
sVself-governed
p2235
F6.18240873715372e-06
sVvalue
p2236
F0.0
sVunequal
p2237
F0.0
sVapposite
p2238
F1.8363355646321238e-05
sVsturdy
p2239
F2.7181844877125553e-05
sVmobile
p2240
F0.0
sVclear
p2241
F0.00029428702604235963
sVbecoming
p2242
F2.276294980156016e-05
sVunreasonable
p2243
F0.002479199806634949
sValtered
p2244
F2.082887160711903e-09
sVtraditional
p2245
F0.00021638789736740793
sVclean
p2246
F0.0002084887076180793
sVusual
p2247
F2.965077200935063e-05
sVparticularly
p2248
F0.00012386972284536682
sVblended
p2249
F4.49406574402036e-06
sVscattered
p2250
F1.231086618108066e-05
sVfixated
p2251
F2.8861404360100566e-05
sVwell-placed
p2252
F6.109415564998612e-09
sVinflexible
p2253
F4.158593509022146e-05
sVco-operative
p2254
F7.067947302061636e-05
sVstoned
p2255
F4.429556529274674e-05
sVcarefully
p2256
F2.4379392115371702e-05
sVexcessive
p2257
F0.0006980194324443773
sVdegraded
p2258
F1.231086618108066e-05
sVfine
p2259
F0.0015436067541196475
sVfind
p2260
F1.231086618108066e-05
sVdistressing
p2261
F0.0003739748560220637
sVgiant
p2262
F1.8743232527026046e-05
sVtime-sensitive
p2263
F1.0476506768755976e-05
sVnorthern
p2264
F0.0
sVparanoid
p2265
F5.793608563047144e-10
sVconvinced
p2266
F1.7790693003269916e-05
sVhope
p2267
F5.741424525786165e-06
sVgrotesque
p2268
F0.0002859849421482496
sVunhappy
p2269
F6.784372760303978e-05
sVidiots
p2270
F3.748471948262641e-05
sVpretty
p2271
F0.001377861297328891
sVinadvisable
p2272
F2.5305938103403367e-09
sVhip
p2273
F1.9593817992274752e-05
sVintractable
p2274
F6.906534529325329e-05
sVlegible
p2275
F1.766529113537385e-05
sVdominant
p2276
F0.00023297924373152926
sVall-powerful
p2277
F4.429556529274674e-05
sVhiv
p2278
F3.5339750037477675e-06
sVdependent
p2279
F5.817625762672096e-05
sVluke
p2280
F8.38295945391556e-06
sVsunny
p2281
F0.00017225300465284902
sVcheaper
p2282
F0.00045753848689948954
sVfamous
p2283
F5.565933144917244e-05
sVout-dated
p2284
F3.305082533051711e-07
sVmieux
p2285
F0.0003006050200372292
sVshared
p2286
F4.397992092164528e-05
sVselfevident
p2287
F2.879848611775674e-05
sVinterminable
p2288
F6.15543309054033e-06
sVfrightening
p2289
F0.0011893423975298124
sVhim
p2290
F1.2643433461039034e-05
sVlegibly
p2291
F4.379874350824613e-06
sVadulthood
p2292
F1.2053577450858575e-08
sVprogressive
p2293
F1.4774159904289079e-05
sVco-operate
p2294
F8.45423523829582e-06
sVwell-off
p2295
F2.0504760378420654e-05
sVnegligeable
p2296
F2.1311129766846597e-05
sVunderlying
p2297
F1.6323114588446007e-05
sVcommon
p2298
F0.0004239357211240188
sVnewest
p2299
F4.157366944406968e-05
sVsustainable
p2300
F0.0007438511482712343
sVunfettered
p2301
F7.948549225610462e-06
sVcourteous
p2302
F2.0795523871319321e-10
sVrelentless
p2303
F1.6791483905556023e-05
sVinsane
p2304
F0.004452734789720561
sVhousebroken
p2305
F1.140878157641319e-05
sVset
p2306
F4.9769186866939885e-06
sVtaken
p2307
F6.992390675165119e-11
sVcynical
p2308
F1.4774159904289079e-05
sVunpublished
p2309
F3.4737404504927384e-06
sVpotent
p2310
F6.118619957464207e-05
sVplausible
p2311
F0.00019495268335085846
sVoverburdened
p2312
F0.0
sVindividual
p2313
F7.940874714063556e-06
sVdumb
p2314
F8.950958695747553e-05
sVgravest
p2315
F0.00017533168353248306
sVsafeguarded
p2316
F2.2918240761085733e-07
sVclose
p2317
F6.168579687777747e-05
sVforthcoming
p2318
F6.995710342099973e-05
sVyouth
p2319
F0.0
sVbuilshit
p2320
F2.9321968522843166e-05
sVhorrid
p2321
F8.087224090077744e-05
sVmuted
p2322
F1.0309079592737053e-05
sVforlorn
p2323
F7.414650202297131e-05
sVcurrently
p2324
F1.3115416489551008e-05
sVmulti-threaded
p2325
F1.231086618108066e-05
sVdegrading
p2326
F0.0001562176907667481
sVinterrelated
p2327
F9.128268385718042e-05
sVvarious
p2328
F2.6155429094367605e-05
sVprobably
p2329
F1.885785631370052e-05
sVburned
p2330
F3.646360899433659e-06
sVnumerous
p2331
F9.918108750712166e-05
sVberserk
p2332
F0.00013142950534606165
sVprepped
p2333
F4.2429446993536323e-10
sVknowing
p2334
F5.538856787063152e-06
sVmilder
p2335
F3.3406823686343915e-05
sVkorea
p2336
F1.3029502584038506e-05
sVrecently
p2337
F3.125269707141502e-05
sVcomplementary
p2338
F6.666384690332054e-05
sVinitially
p2339
F0.0
sVmasterful
p2340
F0.0006268627932741323
sVsole
p2341
F3.918593005115417e-05
sVpoorer
p2342
F0.0040527349876964165
sVuntouched
p2343
F7.026306739843933e-06
sVcounter-productive
p2344
F3.540718685500925e-05
sVsucceed
p2345
F3.8009023665879376e-06
sVrarer
p2346
F8.755627571146816e-05
sVcompetent
p2347
F0.000147440312802798
sVpissed
p2348
F0.0001244760953934892
sVbrillant
p2349
F0.00012144499851247897
sVuseable
p2350
F1.2366107971834318e-05
sVimproved
p2351
F3.304173580405725e-05
sVabhorrent
p2352
F4.294500369426397e-05
sVinfluential
p2353
F1.7251146746182937e-10
sVrestful
p2354
F0.0
sVminus
p2355
F1.8103740907070795e-05
sVsensitive
p2356
F0.0002502438416357518
sVretarded
p2357
F0.0005781767549826877
sVlong-term
p2358
F1.06334728220214e-05
sVinteractive
p2359
F9.927108050015272e-05
sVwhole
p2360
F2.3090233874502187e-05
sVmind-boggling
p2361
F8.098862729891269e-05
sVliked
p2362
F9.778299889428827e-11
sVlarge-scale
p2363
F0.00043301195217873974
sVsimple
p2364
F0.00023888527519573687
sVsweet
p2365
F0.0017443673502359669
sVnortheastern
p2366
F1.2027048695195913e-05
sVrad
p2367
F0.0002321886614904076
sVwhatever
p2368
F0.0
sVleading
p2369
F4.6400938384455694e-05
sVnewborn
p2370
F1.212210983584314e-08
sVless-favoured
p2371
F3.407053524465261e-11
sVsimply
p2372
F7.6989385395586e-05
sVunsuccessful
p2373
F1.4591435910531632e-05
sVoverambitious
p2374
F1.3551989416024005e-06
sVsing
p2375
F1.231086618108066e-05
sVmissingg
p2376
F2.685530809124425e-07
sVexpensive
p2377
F0.00023389677860184593
sVstartling
p2378
F0.001413346128094531
sVworthless
p2379
F0.0001367039086455102
sVdescribed
p2380
F5.182020752027662e-05
sVinadmissible
p2381
F0.0036251325376309416
sVmonthly
p2382
F6.950766435060623e-07
sVdamp
p2383
F2.075154981102191e-10
sVunderage
p2384
F5.634897349265989e-05
sVpolitical
p2385
F9.155547705714552e-05
sVdue
p2386
F1.2313346335375018e-05
sVgoal-oriented
p2387
F0.0
sVreduction
p2388
F0.0
sVlucrative
p2389
F0.0001127474696646919
sVsociable
p2390
F2.164167679317883e-06
sVcontained
p2391
F5.558176708668742e-06
sVintrusive
p2392
F1.9614777863399926e-11
sVwidening
p2393
F2.89647882141982e-10
sVempty
p2394
F4.6796498038768284e-05
sVvice-chairmen
p2395
F7.693841923422806e-06
sVfirm
p2396
F0.0001507689494609933
sVsweetheart
p2397
F7.519577236870838e-07
sVheaviest
p2398
F0.00010194951147231708
sVgay
p2399
F2.4621732362161296e-05
sVschizo
p2400
F0.00018344988425709493
sVexempt
p2401
F5.184305625953583e-06
sVelse
p2402
F9.916669651659504e-05
sVadaptable
p2403
F1.1903854885295442e-05
sVpricey
p2404
F3.081317610681461e-05
sVawake
p2405
F3.0761860931838406e-05
sVdisruptive
p2406
F0.0
sVsystematic
p2407
F1.0257902417761541e-09
sVself-sustained
p2408
F6.18240873715372e-06
sVpresented
p2409
F1.231086618108066e-05
sVflashing
p2410
F0.0
sVintriguing
p2411
F0.00036176160589052595
sVhandling
p2412
F4.103622060360216e-06
sVuncertain
p2413
F0.00021751863941665283
sVexponential
p2414
F0.0
sVsolid
p2415
F0.00011866724938877986
sVcircumneutral
p2416
F2.2914438239657644e-07
sVstraight
p2417
F0.00020638185327846958
sVexpanded
p2418
F9.010583886339562e-06
sVhealthy
p2419
F0.00027396267346234534
sVfun
p2420
F0.0005195259920384642
sVsombre
p2421
F0.0002146332358946509
sVreal
p2422
F0.00027786846253009367
sVunitary
p2423
F2.1869584039569765e-06
sVcostly
p2424
F0.0006288552370186297
sVimpracticable
p2425
F0.0003924361060129132
sVenriching
p2426
F3.4684199184041225e-06
sVguilty
p2427
F1.8887359030210832e-06
sVbinding
p2428
F2.2933271040457136e-05
sVherein
p2429
F7.469009899962831e-06
sVco-ownership
p2430
F4.1422251547219787e-07
sVdisappointing
p2431
F0.00017052782152303646
sVfrantic
p2432
F0.00027404407130842204
sVready
p2433
F0.00026250377345233904
sVlacklustre
p2434
F9.616644400950709e-06
sVall-important
p2435
F3.904427262711382e-05
sVreai
p2436
F2.9075635659910066e-05
sVunfit
p2437
F0.00022543958766339084
sVfunny
p2438
F0.0004705587271784957
sVlengthy
p2439
F0.0001221865067475627
sVclerical
p2440
F4.31454743963392e-07
sVtwofold
p2441
F4.429556529274674e-05
sVpresentable
p2442
F3.874055750204953e-06
sVanymore
p2443
F0.00026794541776493865
sVbonnie
p2444
F3.8326547655547395e-05
sVaccomplished
p2445
F2.8903176701895023e-05
sVelevated
p2446
F7.987366089731349e-05
sVshorter
p2447
F0.00032718107384352104
sVbenign
p2448
F7.699600540766167e-05
sVwierd
p2449
F0.00014479040296167502
sVresults-oriented
p2450
F4.181582376350798e-06
sVreachable
p2451
F3.25527759517888e-05
sVvirtually
p2452
F4.5026547074141216e-05
sVwidely
p2453
F9.694814714575813e-10
sVgrand
p2454
F0.00034718062452988646
sVlenient
p2455
F8.426506878286384e-05
sVstrangers
p2456
F2.273861577039353e-05
sVprerequisite
p2457
F7.44142517788967e-05
sVhigher
p2458
F0.0005442699768629223
sVpray
p2459
F4.033153850871649e-06
sVused
p2460
F0.00011556975233276033
sVtemporary
p2461
F8.51826123257693e-05
sVsomewhere
p2462
F1.6334835936022726e-06
sVcomprehensive
p2463
F0.0002776650827895706
sVpainless
p2464
F8.418790958808839e-06
sVoverweight
p2465
F0.0
sVyesterday
p2466
F7.742712336948831e-06
sValert
p2467
F2.5436741401539416e-05
sVhigh-tech
p2468
F3.865866023126946e-06
sVmoving
p2469
F2.4343708401317036e-10
sVappreciable
p2470
F0.00016137506138105026
sVpeachy
p2471
F3.4855755753982876e-09
sVwholesome
p2472
F5.778486494480361e-06
sVprodigious
p2473
F8.959876390063528e-05
sVtimid
p2474
F0.0006697364161929576
sVinfamous
p2475
F9.16020556414783e-06
sVrecent
p2476
F7.941613374152451e-05
sVgrown-up
p2477
F2.2136237761189212e-05
sVlower
p2478
F0.0003926784635068243
sVpicky
p2479
F0.00017977931379712652
sVolder
p2480
F0.0005538743964646985
sVtry
p2481
F6.1800311060551555e-06
sVenergy-efficient
p2482
F0.0
sVpersuasive
p2483
F1.0964853220283697e-05
sVspent
p2484
F1.988634775169377e-09
sVconcrete
p2485
F5.819286838759006e-05
sVinter-related
p2486
F2.9123711115214245e-05
sVinspirational
p2487
F3.0283610446057633e-05
sVthoroughly
p2488
F2.3262167734204437e-05
sVju
p2489
F3.874055750204953e-06
sVweakest
p2490
F4.848165900970046e-05
sVwell-timed
p2491
F0.0
sVsoaked
p2492
F2.0513185915825153e-05
sVmigratory
p2493
F1.231086618108066e-05
sVprompt
p2494
F0.00013236801876676449
sVludicrous
p2495
F0.00016172381647533234
sVnamed
p2496
F3.312127552453225e-05
sVcompetitive
p2497
F1.5870090188368142e-05
sVhigh-availability
p2498
F3.4737404504927384e-06
sVdistracting
p2499
F0.00011573976463545842
sVinactive
p2500
F4.270229696697117e-05
sVcomprehensively
p2501
F3.0161353255170987e-06
sVirritable
p2502
F2.372837820214694e-05
sVvigilant
p2503
F3.6487169170695144e-05
sVspatially
p2504
F1.231086618108066e-05
sValternative
p2505
F0.00010876784223288102
sVpredominantly
p2506
F7.68527429247771e-06
sVprofitable
p2507
F0.00012835097715790356
sVsuperficial
p2508
F9.690141739164237e-05
sVioyal
p2509
F0.0
sVobservant
p2510
F0.0
sVinformal
p2511
F1.231086618108066e-05
sValternate
p2512
F1.1782939581670497e-05
sVguaranteed
p2513
F2.0994015701595862e-05
sVrecommended
p2514
F1.0988701015286365e-08
sVco-ordinated
p2515
F2.9169798835166153e-06
sVeager
p2516
F1.1664622233333615e-05
sVbrand-new
p2517
F2.176210663359124e-05
sVdeliberately
p2518
F1.9244882397559806e-05
sVtabled
p2519
F4.711296248967802e-06
sVcomprehensible
p2520
F2.696048161644629e-05
sVimpoverished
p2521
F1.706515822074799e-05
sVexcited
p2522
F0.00046641863246547037
sVsurprised
p2523
F0.0007301061680042689
sVuseless
p2524
F0.00028317155073736546
sVamended
p2525
F8.075828119945161e-09
sVlacking
p2526
F0.00014417238630860712
sVbig
p2527
F0.00047812484948440753
sVdiscriminatory
p2528
F1.4774159904289079e-05
sVunlimited
p2529
F3.623844160199133e-06
sVself-sufficiency
p2530
F6.28378884114956e-06
sVshitty
p2531
F0.00012650314261285656
sVculturally
p2532
F1.1626944434213496e-05
sVwiser
p2533
F0.0004896560652248594
sVnessessary
p2534
F1.6735369061770312e-05
sVentrenched
p2535
F5.515916632270569e-07
sVawaken
p2536
F0.0
sVformal
p2537
F4.436277268102185e-05
sVpertinent
p2538
F8.276434769576859e-05
sVsincerely
p2539
F9.552445013045227e-06
sVfollows
p2540
F1.8564476994398578e-10
sVincidental
p2541
F0.00023152117547542604
sVmulticultural
p2542
F5.635065850856612e-06
sVunrealistic
p2543
F0.003055815547845148
sVmanifest
p2544
F3.600588984045694e-05
sVunstable
p2545
F0.00012065398399643219
sVwrecked
p2546
F8.604677367884386e-06
sVpopular
p2547
F5.787969065477871e-05
sVstylish
p2548
F2.2043676026533466e-06
sVunendurable
p2549
F0.0
sVfoolish
p2550
F0.0009255919835386092
sVessential
p2551
F0.00023391445648404492
sVperpetual
p2552
F0.0
sVoften
p2553
F9.855025171855077e-06
sVagreement
p2554
F4.787473303931027e-05
sVunremarkable
p2555
F6.503204855737686e-06
sVfucking
p2556
F2.9637209675502242e-05
sVobliged
p2557
F8.27648315737291e-06
sVfake
p2558
F9.739610610725765e-05
sVmagnificent
p2559
F0.0037654369007729485
sVgrass-roots
p2560
F6.726493627043059e-11
sVunderdeveloped
p2561
F1.19514491264736e-06
sVunderstood
p2562
F7.84963972567906e-05
sVstrongest
p2563
F0.0006191166015190917
sVeconomic
p2564
F4.108366304889249e-05
sVmighty
p2565
F2.5596561398101557e-05
sVaccelerating
p2566
F1.6323879920194548e-05
sVmideast
p2567
F3.455663840809275e-06
sVgreener
p2568
F0.0006945134103919469
sVtrendy
p2569
F1.5360307172185608e-05
sVcurious
p2570
F0.0015712524302331585
sVpale
p2571
F1.231086618108066e-05
sVourselves
p2572
F9.55234948955037e-11
sVindigent
p2573
F9.616644400950709e-06
sVmomentary
p2574
F7.410942790308271e-06
sVpronounced
p2575
F3.4882586682774616e-05
sVdull
p2576
F3.978814715861231e-05
sVproficient
p2577
F2.856973051341679e-05
sVunspoiled
p2578
F4.562960014482254e-05
sVper
p2579
F4.973547578451167e-06
sVgermane
p2580
F1.5006845316579131e-05
sVbogus
p2581
F0.00013643625522805538
sVfbl
p2582
F1.231086618108066e-05
sVstraightforward
p2583
F0.0004562397638075212
sVminimal
p2584
F0.00024313937301835955
sVjumpy
p2585
F0.00014250229115420334
sVeverybody
p2586
F1.231086618108066e-05
sVvarying
p2587
F5.635009500761628e-11
sVcostlier
p2588
F8.832098326007002e-06
sVpatient
p2589
F1.231086618108066e-05
sVprocessing
p2590
F4.103622060360216e-06
sVperpendicular
p2591
F1.231086618108066e-05
sVpatentable
p2592
F0.0
sVchickenshit
p2593
F2.9321968522843166e-05
sVrestrictive
p2594
F0.00014635259643821513
sVweil
p2595
F6.615736865093635e-05
sVweii
p2596
F7.32705223898906e-05
sVtherefore
p2597
F6.447061111678662e-06
sVintense
p2598
F0.0012792704149519904
sVhandled
p2599
F3.693259854324195e-05
sVdormant
p2600
F0.0
sVill-defined
p2601
F9.998599111395276e-07
sVcautious
p2602
F9.510374731045272e-05
sVsharper
p2603
F2.8547025584472545e-05
sVdeserved
p2604
F5.869094322289917e-06
sVstate-of-the-art
p2605
F3.812359799753701e-05
sVexaggerated
p2606
F0.00011525577228515146
sVdisoriented
p2607
F2.58253123046711e-05
sVin-depth
p2608
F5.405872139361426e-05
sVreduced
p2609
F7.381974715652674e-06
sVfrightful
p2610
F0.00016697964450085502
sVself-executing
p2611
F1.5209495990390646e-05
sVcomplimentary
p2612
F0.000450729563410899
sVshiny
p2613
F0.0003759415045064993
sVyouthful
p2614
F5.854534057496606e-07
sVenlightening
p2615
F4.815165808472395e-05
sVcredible
p2616
F0.00015368823479758353
sVshipshape
p2617
F2.8903321214888158e-05
sVwell-organised
p2618
F2.283172097334961e-05
sVabusive
p2619
F0.00021783820002654306
sVintegral
p2620
F3.964509955291123e-05
sVnonsense
p2621
F0.0002573681664832812
sVawaited
p2622
F4.8811426388067e-05
sVappropriate
p2623
F0.000590332862984331
sVprimarily
p2624
F7.68527429247771e-06
sVconscientious
p2625
F0.0
sVproportional
p2626
F1.0536363333620227e-05
sVdelusional
p2627
F0.0001348895960265781
sVunnerving
p2628
F1.2280263400248278e-08
sVcalming
p2629
F3.66228887417339e-05
sVimpressed
p2630
F0.0003470177797906381
sVrobust
p2631
F0.0009307498542451469
sVinfuriating
p2632
F0.0010714792261120297
sVeleven
p2633
F6.950766435060623e-07
sVdismal
p2634
F0.00011340186835432628
sVhands-on
p2635
F2.05504439871148e-05
sVbusiness-friendly
p2636
F2.572250224383174e-06
sVquestion
p2637
F2.0717283137167356e-05
sVpractice-oriented
p2638
F4.181582376350798e-06
sVfast
p2639
F3.235864230774196e-05
sVaccountability
p2640
F1.1761787250336948e-06
sVconsultation
p2641
F1.4111496948745155e-06
sVinfected
p2642
F6.099153180262917e-05
sVprettier
p2643
F0.0004107518836688063
sVconceivable
p2644
F4.364422234497105e-05
sVbored
p2645
F1.434145922851672e-05
sVnewsworthy
p2646
F9.105301208288463e-07
sVwell-organized
p2647
F2.708548714538595e-05
sVconsiderably
p2648
F0.00010238393362843499
sVforeverything
p2649
F2.1285439749256303e-05
sVperplexing
p2650
F1.8125197272782182e-05
sVelsewhere
p2651
F2.4550823099403848e-05
sVrelaxed
p2652
F9.284530744830273e-05
sVaudacious
p2653
F9.108375027895512e-05
sVapplicable
p2654
F7.272680369528812e-05
sVunheard-of
p2655
F0.0010463630677309984
sVarchaic
p2656
F3.305082533051711e-07
sVproperly
p2657
F8.297180956208771e-05
sVmajeure
p2658
F0.0002703206151610381
sVnewer
p2659
F5.908247667334682e-05
sVfiled
p2660
F1.7672562251719517e-05
sVupright
p2661
F1.0844169439671e-05
sVconsiderable
p2662
F0.000702227971852457
sVinfo
p2663
F5.006834212024977e-11
sVcharmed
p2664
F3.1899172096558305e-05
sVinhumane
p2665
F2.4537190741464243e-06
sVup
p2666
F5.128540756032608e-06
sVus
p2667
F7.489324378789192e-05
sVgratifying
p2668
F6.0833986088469836e-05
sVdickish
p2669
F3.874055750204953e-06
sVaccustomed
p2670
F4.684517270023631e-06
sVmature
p2671
F2.1648248459466617e-05
sVsuitable
p2672
F0.00029274944648969805
sVheterogeneous
p2673
F2.8175329251465502e-11
sVexport
p2674
F0.0
sVautonomous
p2675
F1.2466834098242368e-05
sVloving
p2676
F0.0
sVsimilar
p2677
F0.0001524648920756214
sVcalled
p2678
F7.098718127887287e-06
sVsunnier
p2679
F1.6345388149433615e-05
sVawestruck
p2680
F0.00015987102489181196
sVdevastating
p2681
F0.000157863589762412
sVassociated
p2682
F9.76960383739008e-06
sVworthwhile
p2683
F0.00042244221309073975
sVmindful
p2684
F8.599168593681068e-06
sVdefined
p2685
F5.4225089698799126e-05
sVdemeaning
p2686
F5.2294540687449075e-05
sVunsafe
p2687
F1.6579377470385076e-05
sVinterwoven
p2688
F1.4672086616024333e-05
sVlye
p2689
F1.0164422035704831e-05
sVconsulted
p2690
F2.4233657036942573e-07
sVdiverse
p2691
F0.00010225024896768518
sVevening
p2692
F4.416092058311607e-06
sVunwise
p2693
F0.0003245316247836757
sVgraceful
p2694
F8.6642777821773e-06
sVsteeper
p2695
F1.4661677394366063e-05
sVre-established
p2696
F5.595476692148215e-06
sVactionable
p2697
F3.6150223777587e-05
sVpredictability
p2698
F2.5772931306833758e-05
sVdivine
p2699
F1.6345497116873565e-05
sVpuzzling
p2700
F0.0011918973053314263
sVtentative
p2701
F4.828425229137251e-05
sVmalicious
p2702
F4.6420269076735434e-05
sVcohesive
p2703
F1.7393328019421817e-05
sVinvalid
p2704
F0.00047881421602405453
sVdemocratically
p2705
F1.083451160003918e-05
sVunjustifiable
p2706
F0.000350921303471623
sVrealisable
p2707
F7.508675608308963e-05
sVnice
p2708
F0.0016974816221605312
sVenergetic
p2709
F7.563877787651704e-06
sVsmitten
p2710
F6.130053887208983e-05
sVlucid
p2711
F1.5659952994392412e-05
sVlong-lasting
p2712
F3.265318940163821e-05
sVprepared
p2713
F0.00033477449649759513
sVtreatable
p2714
F3.982115679055053e-06
sVgenerated
p2715
F4.0884184392187625e-06
sVbad-ass
p2716
F1.9593974740624133e-05
sVago
p2717
F1.0449742218903729e-10
sVfurthest
p2718
F5.006917659039837e-06
sVtailored
p2719
F5.103987065614769e-10
sVhappier
p2720
F0.0001477268351534526
sVpractically
p2721
F7.397394547724839e-05
sVnon-discriminatory
p2722
F0.0
sVsounder
p2723
F1.1209550156868725e-05
sVappalling
p2724
F0.006544401773018689
sVimpatient
p2725
F4.819643518225174e-05
sVlogical
p2726
F0.00046986068548975427
sValigned
p2727
F1.8723698352398884e-06
sVenrolled
p2728
F3.0074866830354385e-10
sVignorant
p2729
F5.908964519140882e-05
sVnice-looking
p2730
F1.4681191784453645e-05
sVintentional
p2731
F1.7191065026779322e-05
sVmodernizing
p2732
F8.426035930783318e-07
sVpartial
p2733
F5.5840140522101226e-05
sVashamed
p2734
F0.00028335685766926055
sVissued
p2735
F1.0180297643901128e-05
sVexisting
p2736
F4.159040621609902e-05
sVenjoyable
p2737
F0.00014918261136858183
sVsofter
p2738
F5.2034278286931175e-06
sVbroader
p2739
F0.00032155576274648165
sVdainty
p2740
F0.00010808231174275996
sVintricate
p2741
F1.3094414382315042e-05
sVhumid
p2742
F2.872603347880182e-05
sVpsycho
p2743
F0.0003357618353718858
sVwell-targeted
p2744
F1.5474143580254137e-06
sVworrisome
p2745
F0.0001257955787277096
sVcompact
p2746
F0.0
sVgraver
p2747
F3.800799583828132e-05
sVlongstanding
p2748
F9.321590866423464e-06
sVdisposal
p2749
F4.103622060360216e-06
sVconcerned
p2750
F5.852857466294483e-05
sVfried
p2751
F4.103413072982164e-06
sVyoung
p2752
F3.6842198188040586e-06
sVgovernment-owned
p2753
F3.414399460489193e-06
sVintensive
p2754
F0.00011999798027754117
sVmulti-layered
p2755
F1.4443390148827034e-06
sVobstinate
p2756
F4.974214644711775e-05
sVexcluded
p2757
F2.8944610486573964e-06
sVstable
p2758
F7.473798913233367e-05
sVexpeditious
p2759
F0.00014897920830348732
sVfatal
p2760
F0.00034507415071536847
sVfriendly
p2761
F0.000667059633342453
sVscarlett
p2762
F8.38299819408566e-06
sVinter-dependent
p2763
F2.7318731924040668e-05
sVvirtuous
p2764
F2.853459414240665e-05
sVwished
p2765
F1.7750821342747813e-05
sVpresently
p2766
F1.3115399121196136e-05
sVsusceptible
p2767
F4.535422550597083e-05
sVunhurt
p2768
F1.1209550156868725e-05
sVcelebrities
p2769
F2.5540989149689226e-05
sVdisquieting
p2770
F0.0001577373080719791
sVwell-done
p2771
F0.0003443762390649835
sVpopulous
p2772
F1.172772008223712e-05
sVimplausible
p2773
F0.00017814362035068198
sVcontinued
p2774
F9.297570549383574e-06
sVedible
p2775
F2.0940611176404356e-05
sVtimely
p2776
F0.0001206278914070159
sVseverely
p2777
F2.5675025164000983e-05
sVmagic
p2778
F5.677880905085049e-08
sVrespectful
p2779
F4.327995387519086e-05
sVstiff
p2780
F0.0005082841817292805
sVcompassionate
p2781
F0.0
sVfewer
p2782
F0.00012747399383695343
sV'sgoing
p2783
F1.7597627515672272e-05
sVgullible
p2784
F2.5515908447881494e-06
sVbrutal
p2785
F0.0004119282358277636
sVrace
p2786
F9.346385459839887e-06
sVbusier
p2787
F3.931915496995668e-06
sVreyes-torrena
p2788
F0.0
sVco-financing
p2789
F3.077716545270165e-06
sVtrite
p2790
F5.743208737132458e-06
sVmanifestly
p2791
F3.402111237362358e-05
sVsedentary
p2792
F5.695168932249281e-06
sVnoted
p2793
F4.5694445821427863e-05
sVconcluded
p2794
F1.7717668346008459e-06
sVsomeday
p2795
F1.231086618108066e-05
sVsmaller
p2796
F0.00030611564900685074
sVmalignant
p2797
F3.4470921449038437e-05
sVunprofitable
p2798
F4.6109865709741525e-05
sVjump
p2799
F1.317948888999219e-10
sVegocentric
p2800
F4.9480959302467114e-06
sVuncomfortable
p2801
F0.00046283277553648425
sVunattractive
p2802
F7.71545699454321e-05
sVodd
p2803
F0.002037329307098602
sV-just
p2804
F5.431569537368497e-06
sVscientific
p2805
F2.843405062358033e-06
sVhourly
p2806
F1.231086618108066e-05
sVunavailable
p2807
F0.0004833396892043188
sVjunior
p2808
F1.0057120407701325e-09
sVmarketed
p2809
F3.4737404504927384e-06
sVexpressed
p2810
F8.264149884635588e-06
sVoverwhelmed
p2811
F8.993063775089555e-05
sVunhelpful
p2812
F7.530624677768272e-05
sVrotten
p2813
F0.0011580111428797803
sVindian
p2814
F1.231086618108066e-05
sVvolatile
p2815
F0.0015263745231139385
sVpolluting
p2816
F0.00010220783896051363
sVindustrialized
p2817
F1.707700976639532e-11
sVpristine
p2818
F2.8903321214888158e-05
sVimplementable
p2819
F0.0
sVjustification
p2820
F4.1171689994732255e-06
sVcozy
p2821
F5.913355319039946e-05
sVstrained
p2822
F1.073925915204339e-05
sVsobering
p2823
F0.00016088168100640202
sVcommercial
p2824
F3.4737404504927384e-06
sVconsideration
p2825
F1.231086618108066e-05
sVnonexistent
p2826
F3.3506825129862196e-05
sVyoungest
p2827
F3.075113723256257e-06
sVdesired
p2828
F1.7751387947468092e-05
sVfocused
p2829
F1.0586540094854368e-05
sVothers
p2830
F2.731131959761813e-05
sVsexy
p2831
F0.00021511733592082292
sVsafer
p2832
F7.709918051447593e-05
sVfifteen
p2833
F6.950766435060623e-07
sVirritating
p2834
F2.4658557736341038e-08
sVextreme
p2835
F8.864070735795169e-05
sVstellar
p2836
F0.00018643873091381177
sVgreat
p2837
F0.003843149939592384
sVlosin
p2838
F3.7902867657891604e-06
sVbroken
p2839
F1.231086618108066e-05
sVtechnical
p2840
F4.117676855313477e-05
sVinvolved
p2841
F1.5082314382416888e-05
sVlarger
p2842
F0.0010143582242517388
sVunconditional
p2843
F4.926770986093024e-05
sVnervous
p2844
F0.00033226415993183755
sVprincipally
p2845
F7.68527429247771e-06
sVdisconcerting
p2846
F0.00011053417417620655
sVcommendable
p2847
F0.00045973403187891677
sVup-to-date
p2848
F1.3262907061057496e-05
sVpanicked
p2849
F0.0006495810945611476
sVasinine
p2850
F6.672136279688349e-05
sVdanger
p2851
F3.972384615345961e-06
sVclare
p2852
F9.998599111395276e-07
sVwin
p2853
F1.231086618108066e-05
sVlimp
p2854
F3.3820846521049644e-09
sVworthy
p2855
F0.00040899195528058694
sVclara
p2856
F3.965541441356091e-06
sVcrazy
p2857
F0.0021128048780212046
sVprivate
p2858
F2.0992579563617308e-05
sVsacrilegious
p2859
F3.7583497099153835e-05
sVimprobable
p2860
F9.910117762663172e-05
sVstupider
p2861
F5.262162310530405e-05
sVstanding
p2862
F1.607264673624426e-05
sVuse
p2863
F3.727267273056251e-05
sVsadder
p2864
F4.293578413055523e-09
sVe.g.
p2865
F2.1838972407586714e-06
sVillegal
p2866
F0.0015577450113693726
sVreadable
p2867
F4.3808435109361155e-06
sVseamless
p2868
F7.5722240532758685e-06
sVnext
p2869
F3.2322724847994315e-06
sVfew
p2870
F0.0003104193290145971
sVdoubt
p2871
F8.658287166795173e-10
sVsubsidized
p2872
F0.0
sVagreeable
p2873
F0.00015281423811081736
sVexhaustive
p2874
F6.619400881982119e-05
sVnoisy
p2875
F6.858850950014711e-06
sVwell-reputed
p2876
F0.0
sVindefensible
p2877
F0.004932885121727348
sVclever
p2878
F0.00018663624725299982
sVbabe
p2879
F4.398123352011361e-09
sVdysfunctional
p2880
F5.3247394770613856e-05
sVsorr
p2881
F0.0001193392549337819
sVcost-efficient
p2882
F6.999003110649862e-05
sVstarted
p2883
F1.3089659259724798e-05
sVrarest
p2884
F3.0561559395870426e-05
sVvisibility
p2885
F5.344046812332342e-06
sVcharming
p2886
F0.0004957472789377867
sVsore
p2887
F0.00019321801154719193
sVtransient
p2888
F1.531338404855188e-05
sVfaultless
p2889
F0.00016602414559699553
sVcentral
p2890
F0.00012309239854177266
sVunforgiving
p2891
F5.98010315478551e-06
sVappointed
p2892
F1.0412651847636144e-05
sVgrim
p2893
F0.000357998363572419
sVuncontroversial
p2894
F2.5693648145999873e-05
sVdisingenuous
p2895
F9.750600709814157e-05
sVintegrating
p2896
F2.1869584039569765e-06
sVthis
p2897
F6.908165206145935e-05
sValia
p2898
F0.0
sVanywhere
p2899
F4.973547578451167e-06
sVobvious
p2900
F0.00032610045257965513
sVthin
p2901
F6.41180776638194e-05
sVindustrial
p2902
F0.0
sV-lnteresting
p2903
F8.322379875334611e-06
sVperformed
p2904
F3.5169752979126535e-06
sVindisposed
p2905
F1.9155094300733253e-05
sVweaker
p2906
F0.00023605442354312679
sVproprietary
p2907
F4.908288259492558e-06
sVthirsty
p2908
F7.004276520412347e-06
sVslim
p2909
F7.060651872558978e-05
sVloco
p2910
F0.00023112828916177597
sVhigh
p2911
F0.006375115618386842
sVeffectively
p2912
F8.538036987405844e-05
sVapplication
p2913
F7.381252447934457e-07
sVsomething
p2914
F5.292161828718418e-05
sVwonderful
p2915
F0.004232506786797509
sVexpandable
p2916
F0.0
sVcowardly
p2917
F1.231086618108066e-05
sVtan
p2918
F3.70305170088757e-05
sVupstanding
p2919
F2.365356798811913e-05
sVpsyched
p2920
F6.583809746168387e-05
sVeducational
p2921
F0.00012531743272415174
sVwell-founded
p2922
F0.0004066494862907952
sVvaried
p2923
F1.350968855885109e-05
sVfriendlier
p2924
F3.3144145372787464e-05
sVlame
p2925
F0.0002463576300480563
sVbuoyant
p2926
F2.77897401099032e-05
sVjustifiable
p2927
F0.0024945844077362968
sVneurotic
p2928
F1.538686491745369e-05
sVdelay
p2929
F4.41611413833028e-06
sVwell-respected
p2930
F3.0082183814736552e-06
sVinstead
p2931
F5.991878583356883e-06
sVthin-skinned
p2932
F4.49406574402036e-06
sVcounterfeit
p2933
F0.00019211731256607847
sVestablishment
p2934
F1.8582058133220295e-06
sVabrasive
p2935
F2.2919032574920304e-07
sVoverridden
p2936
F1.3047362297067416e-06
sVsir
p2937
F0.0005488104009585308
sV-surprised
p2938
F0.0
sVfactored
p2939
F2.1869584039569765e-06
sVfluid
p2940
F1.1161892192982525e-05
sVpermanent
p2941
F2.5333085582676152e-05
sVseropositive
p2942
F3.533992673269382e-06
sVlegality
p2943
F1.6449187815818212e-08
sVinsufficient
p2944
F0.0007045248114258281
sVcabbage
p2945
F2.7628541204386293e-05
sViate
p2946
F4.416128858588562e-06
sVsolidarity
p2947
F4.057176785331241e-06
sVunforeseeable
p2948
F4.165526799781745e-05
sVnon-transparent
p2949
F7.572173572959243e-06
sVdefective
p2950
F1.1438440419854842e-05
sVlight
p2951
F0.0001578353582986851
sVcounter
p2952
F2.853968428515126e-05
sVarduous
p2953
F0.0002290517153875173
sVredundant
p2954
F0.000299766540359549
sVclaire
p2955
F3.5081899523421383e-06
sVcrazed
p2956
F0.00015652881102286423
sVsix-year
p2957
F6.950766435060623e-07
sVclassy
p2958
F1.5360307172185608e-05
sVwell-managed
p2959
F3.939986299535636e-06
sVsecured
p2960
F5.934938330805914e-06
sVfastest
p2961
F9.113648495095062e-05
sVunsolved
p2962
F9.473241953304241e-05
sVrusted
p2963
F9.84757245787222e-06
sVcreation
p2964
F1.8582058133220295e-06
sVnon-exclusive
p2965
F5.687232607013531e-06
sVever-changing
p2966
F1.0618811849506311e-05
sVin-house
p2967
F2.963574747505847e-06
sVmove
p2968
F9.346385459839887e-06
sVfacilitated
p2969
F0.0
sVmeager
p2970
F0.000150980366956715
sVstatutory
p2971
F5.983944303007788e-05
sVwhilst
p2972
F2.1838972407586714e-06
sVstimulating
p2973
F1.3626452416989273e-05
sVflattering
p2974
F0.00041827755433853687
sVfertile
p2975
F3.4684199184041225e-06
sVunquestionable
p2976
F8.111087926545807e-06
sVhappiest
p2977
F5.111904832382747e-06
sVoperative
p2978
F1.6763027143859822e-06
sVcontaminated
p2979
F0.0
sVperfect
p2980
F0.0012922930105053608
sVsuperior
p2981
F7.05734118024903e-05
sVmulti-dimensional
p2982
F1.231086618108066e-05
sVcontemplated
p2983
F2.8239532967659282e-06
sVgoodto
p2984
F6.402967364684072e-06
sVchosen
p2985
F5.991818665170255e-11
sVchoosy
p2986
F0.0001062074066408608
sVwinning
p2987
F1.231086618108066e-05
sVmental
p2988
F0.00010341714083393854
sVwilling
p2989
F0.00019169492896134016
sVpilot-tested
p2990
F1.5136566522370503e-05
sVcriminal
p2991
F5.5162961680009834e-05
sVpending
p2992
F0.00010437409074498943
sVpure
p2993
F1.4177272842248003e-05
sVbolder
p2994
F8.662009220792618e-05
sVmaterial
p2995
F5.236116880473005e-05
sVcommended
p2996
F8.357328324663583e-10
sVcommitment
p2997
F4.31454743963392e-07
sVheavy-handed
p2998
F9.480248528995327e-05
sVstout
p2999
F2.3205851980574678e-05
sVapolitical
p3000
F0.0
sVimpaired
p3001
F6.409127358423925e-07
sVdocumented
p3002
F8.988716890693743e-06
sVhandy
p3003
F0.00015558612943048555
sVfragmented
p3004
F1.231086618108066e-05
sVcrass
p3005
F3.921477285417084e-05
sVtransitional
p3006
F7.410942790308271e-06
sVprofound
p3007
F0.00013461348750579466
sVintelligent
p3008
F7.177942785881021e-05
sVradiant
p3009
F1.6345388149433615e-05
sVwell-tolerated
p3010
F1.231086618108066e-05
sVunpredictable
p3011
F0.0001181663480125384
sVdelightful
p3012
F0.0011248332558498658
sVtruth
p3013
F3.874055750204953e-06
sVshaking
p3014
F0.00021907745051377928
sVexpressly
p3015
F2.9656667021796247e-06
sVexperienced
p3016
F5.6471441058720344e-05
sVprevailing
p3017
F4.4562174910693105e-05
sVdoing
p3018
F1.231086618108066e-05
sVtepid
p3019
F1.0501394854491561e-05
sVmet
p3020
F0.00014061058336038224
sVsecretive
p3021
F1.1943932091448398e-05
sVrelated
p3022
F4.7391912109255516e-05
sVaggravated
p3023
F5.082434771422387e-05
sVstatic
p3024
F1.4955264565048437e-05
sVthirteen
p3025
F0.0
sVspecial
p3026
F0.001427287854494445
sVout
p3027
F4.530136389231351e-08
sVmid-
p3028
F2.5005023592233112e-05
sVlukewarm
p3029
F1.4864142935880061e-05
sVtwice
p3030
F4.434880194034476e-06
sVundemocratic
p3031
F1.083451160003918e-05
sVshallow
p3032
F3.675318479181557e-05
sVsingular
p3033
F7.305325079650419e-05
sVunlawful
p3034
F0.0008642943053455534
sVenforceable
p3035
F0.00014953148613319853
sVwholly
p3036
F1.0150805188829548e-05
sVoriental
p3037
F4.5970596290819915e-06
sVwondrous
p3038
F0.0004516576294151318
sVhilarious
p3039
F0.000680607153748173
sVunprepared
p3040
F5.348919459257967e-05
sVhonorable
p3041
F5.910882679489074e-05
sVadaptive
p3042
F9.692092320196838e-07
sVintegrated
p3043
F3.481135193826631e-05
sVannounced
p3044
F5.2236042255131154e-06
sVtrashy
p3045
F4.183484108752023e-05
sVfrank
p3046
F5.8201302900811225e-05
sVstepped-up
p3047
F8.215947346560504e-05
sVhumiliating
p3048
F0.00019958699400959975
sVincalculable
p3049
F1.1678405600905309e-05
sVgreedy
p3050
F7.141667145347502e-05
sVpromptly
p3051
F1.159403529585017e-05
sVfourteen
p3052
F0.0
sVclarify
p3053
F1.4339238688582221e-05
sVcompletely
p3054
F2.7277592750331203e-05
sVsurely
p3055
F9.855025171855077e-06
sVtied
p3056
F2.5894825693554213e-05
sVearly
p3057
F3.4669369416824824e-05
sVapt
p3058
F1.6836058611930264e-05
sVmoody
p3059
F1.0476143316606998e-05
sVimpulsive
p3060
F0.0
sVprincess
p3061
F3.874017010034868e-11
sVshortest
p3062
F7.902391852780972e-06
sVtwo-pronged
p3063
F4.429556529274674e-05
sVorganic
p3064
F4.027175053443308e-05
sVhostile
p3065
F6.856287588083065e-07
sVdetermining
p3066
F1.7849747149276257e-05
sVbetter-educated
p3067
F2.538143321416485e-06
sVdiminished
p3068
F1.0351920247125052e-05
sVfeasible
p3069
F0.000815410711147004
sVchilly
p3070
F8.704580413285544e-05
sVmortal
p3071
F0.0
sVtimed
p3072
F4.6831611141381336e-11
sVretail
p3073
F3.982115679055053e-06
sVcomprende
p3074
F2.229926785254491e-06
sVsouth
p3075
F7.16073186017102e-06
sVmad
p3076
F0.0013377490202172494
sVfledged
p3077
F7.583520933370343e-06
sVdistracted
p3078
F9.543584854754615e-05
sVswifter
p3079
F8.944247623735972e-05
sVpowerful
p3080
F0.000401309681331641
sVowned
p3081
F3.4092555222238686e-06
sVsoothing
p3082
F0.0
sVembarrassed
p3083
F0.000737713781241183
sVsuch
p3084
F9.855074445995414e-06
sVstarker
p3085
F2.1181379837783885e-06
sVprecisely
p3086
F4.688473922593858e-06
sVquality
p3087
F6.1994570818288795e-06
sVendemic
p3088
F1.9136707035988687e-05
sVopportune
p3089
F0.00010031425363769939
sVfella
p3090
F1.231086618108066e-05
sVancient
p3091
F3.3644375542503076e-09
sVsadly
p3092
F5.595476692148215e-06
sVfair
p3093
F0.0005033733564107434
sVstrict
p3094
F0.00029321756736311056
sVnon-partisan
p3095
F2.7848944755964076e-07
sVunknown
p3096
F0.00013253103361712023
sVdurable
p3097
F2.554804004099341e-05
sVvulgar
p3098
F4.183484108752023e-05
sVopening-up
p3099
F1.765466660845066e-05
sVadopted
p3100
F3.6278810718992166e-06
sVlamentable
p3101
F0.00013009949272991078
sVimmovable
p3102
F1.231086618108066e-05
sVintermediate
p3103
F0.00017189760244214428
sVinalienable
p3104
F2.627251193936695e-05
sVscant
p3105
F3.370264136213481e-05
sVperfectly
p3106
F6.473135045028972e-05
sVfairest
p3107
F4.6151672989867656e-05
sVpainful
p3108
F0.0006528939139931149
sVfutile
p3109
F0.0002480432509826532
sVpervasive
p3110
F0.00010285018431189758
sVunder-inclusive
p3111
F4.518781320002491e-05
sVco-dependent
p3112
F2.7318771304786884e-05
sVchallenging
p3113
F0.00041860792725671107
sVambiguous
p3114
F0.00011530393910822554
sVin-progress
p3115
F9.641671211947022e-06
sVreversed
p3116
F7.405662157088106e-06
sVunoccupied
p3117
F1.496452454751454e-05
sVapologise
p3118
F6.544785614746572e-06
sVself-sustaining
p3119
F0.00010261932754741973
sVdepressing
p3120
F6.270914399839121e-05
sVenvironmental
p3121
F5.481426201629289e-05
sVabsent-minded
p3122
F7.2173391619881685e-06
sVdynamite
p3123
F0.0004910968228993628
sVinterestedin
p3124
F1.4201012050418335e-05
sVinestimable
p3125
F1.936367989338302e-05
sVoverwhelming
p3126
F0.0017263841389546417
sVastounded
p3127
F9.915437976289993e-05
sVdiscretionary
p3128
F0.0
sVupdating
p3129
F4.881461158432404e-06
sVglamorous
p3130
F9.847562640083287e-06
sVdandy
p3131
F4.942240407728214e-10
sVegregious
p3132
F0.0003254568604078967
sVobjectionable
p3133
F0.0004224597411894473
sVboring
p3134
F0.0001245735653752772
sVcoast
p3135
F1.2026928425911703e-10
sVwell-established
p3136
F1.9683006195064658e-05
sVsubmitted
p3137
F3.0097896481593146e-11
sVappealing
p3138
F1.4393832636941304e-05
sVexclusive
p3139
F5.3148158112903196e-05
sVcircumspect
p3140
F1.4007273775909281e-05
sVidentical
p3141
F3.69761379070516e-05
sVbare
p3142
F1.439700484296981e-05
sVstricter
p3143
F0.00010414725061106432
sVundamaged
p3144
F7.026306739843933e-06
sVsteep
p3145
F0.0
sVdistinguished
p3146
F8.567447414818809e-09
sVdrunk
p3147
F1.231086618108066e-05
sVbeter
p3148
F5.991878583356883e-06
sVfalse
p3149
F0.00020527958857777885
sVpoverty-stricken
p3150
F3.1608609472401245e-06
sVunchanged
p3151
F0.000104080789079101
sVreassuring
p3152
F2.242648902909314e-05
sVtransitory
p3153
F7.410992195770906e-06
sVgentle
p3154
F0.00011790532679560215
sVthereto
p3155
F5.991878583356883e-06
sVpitiable
p3156
F2.3248226736030564e-05
sVunlikely
p3157
F0.00042407256908062047
sVmiserable
p3158
F0.001419854342030069
sVneed
p3159
F1.2141136417851676e-05
sVrepresentativeness
p3160
F3.004399978342992e-08
sVconstrained
p3161
F3.6238683187579456e-06
sVstillborn
p3162
F5.461240918085843e-06
sVclearly
p3163
F1.9092322917362686e-05
sVvis-
p3164
F2.2001006199727955e-06
sVunbearable
p3165
F0.003145628181584248
sVbastard
p3166
F0.0
sVafraid
p3167
F0.0001333954507393353
sVlightweight
p3168
F5.742588536731192e-05
sVable
p3169
F8.586039913706388e-05
sVaccelerated
p3170
F1.0682618875217068e-05
sVcross-border
p3171
F0.0
sVpivotal
p3172
F0.00012167003918544552
sVasshole
p3173
F3.0313859703722287e-05
sVseductive
p3174
F2.1125166545299512e-05
sVcompetence
p3175
F1.5136566522370503e-05
sVdeader
p3176
F5.461240918085843e-06
sVaccuracy
p3177
F0.0
sVpatchy
p3178
F4.010232298493805e-06
sVtonight
p3179
F0.0
sVaxiomatic
p3180
F6.39469804206922e-05
sVdo-able
p3181
F4.68485664816244e-05
sVharmful
p3182
F0.00010415577806179713
sVfurious
p3183
F0.00013618081933168403
sVconnected
p3184
F1.660107579381854e-05
sVpreliminary
p3185
F7.410942790308271e-06
sValarmed
p3186
F0.00025225217589458537
sVwhy
p3187
F3.874081576813258e-06
sVprobable
p3188
F0.00012255058784529986
sVso-called
p3189
F1.907382490391799e-06
sVrefreshing
p3190
F0.00012278020710104295
sVundeniable
p3191
F1.796759084481826e-05
sVenthusiastic
p3192
F4.424965176054307e-05
sVupset
p3193
F0.0003363929318476495
sVrepeated
p3194
F7.322798498892333e-06
sVreconcilable
p3195
F2.3912904759311435e-06
sVastonishing
p3196
F0.004509507477836999
sVabsurd
p3197
F0.0005153654866439063
sVmechanical
p3198
F1.231086618108066e-05
sVwounded
p3199
F8.845675878120822e-06
sVskinny
p3200
F4.0874843959459476e-05
sVtypical
p3201
F0.0005024927414156535
sVnormally
p3202
F9.468800085798119e-06
sVemerging
p3203
F7.642480055528104e-06
sVioaded
p3204
F6.705305789445371e-06
sVreprehensible
p3205
F0.0027768981247186636
sVannually
p3206
F1.20799890761706e-08
sVagreed
p3207
F4.949242496551452e-05
sVsupported
p3208
F0.00016768161872376312
sVwoolly
p3209
F0.0
sVanyway
p3210
F6.278511867407953e-06
sVunfathomable
p3211
F1.8125197272782182e-05
sVsouth-east
p3212
F3.455663840809275e-06
sVplanning
p3213
F2.8239532967659282e-06
sVunreliable
p3214
F0.00046333491981782144
sVtelling
p3215
F4.172514337958697e-06
sVcareful
p3216
F0.00045529470582786986
sVdarkest
p3217
F0.0
sVtrivial
p3218
F0.00012969903050317864
sVpleased
p3219
F0.00012749025791673415
sVprincipal
p3220
F0.0003983763695888435
sVloveable
p3221
F0.00017898938218377936
sVinspiring
p3222
F2.190109647500713e-05
sVholistic
p3223
F1.541535443315722e-05
sVbased
p3224
F6.650880844670629e-05
sVnaturalistic
p3225
F3.975519574448041e-05
sVhopeful
p3226
F2.420824852393106e-06
sVrash
p3227
F0.00010533742689934889
sVoperational
p3228
F1.94977266648639e-05
sVbrighter
p3229
F0.0007276903991109513
sVsmallest
p3230
F0.0010215471116046082
sVhouse-trained
p3231
F1.1408753425641572e-05
sVgirlie
p3232
F3.7581493457304975e-06
sVhandsome
p3233
F0.0012774861193765388
sVvice-chairman
p3234
F1.5387810737112715e-05
sVinferior
p3235
F0.00023671420272853173
sVdemonstrated
p3236
F2.9656667021796247e-06
sVregularly
p3237
F5.3458547670159415e-05
sVrighteousness
p3238
F3.874055750204953e-06
sVexceptional
p3239
F0.000625986105839969
sVfamiliar
p3240
F2.799992197946746e-05
sVdope
p3241
F2.7628264921737187e-10
sVcranky
p3242
F1.6414496068478805e-05
sVlucky
p3243
F0.0001200145295987581
sVmum
p3244
F3.5406921307100515e-05
sVlegitimate
p3245
F0.00015807053348295755
sVaforementioned
p3246
F4.612530695498987e-05
sVdistraught
p3247
F2.955659307878949e-05
sVself-evident
p3248
F8.755112156826365e-05
sVunjustified
p3249
F0.000659344340212877
sVdodgy
p3250
F4.49406574402036e-06
sVnearly
p3251
F3.8882316824662755e-05
sVfollowing
p3252
F2.182952208088772e-05
sVcontemptible
p3253
F9.36131117261255e-06
sVended
p3254
F4.973572445691695e-06
sVshy
p3255
F0.0002618192214263838
sVmarried
p3256
F5.623928494899329e-08
sVself-financing
p3257
F6.98350391659332e-05
sVaffluent
p3258
F2.0666778098139368e-05
sVhollow
p3259
F4.6838259447890704e-05
sVyellow
p3260
F1.1082427803559626e-05
sVstreamlined
p3261
F9.210281151846077e-05
sVwish
p3262
F1.7750821342747813e-05
sVunfeasible
p3263
F3.939033591864238e-05
sVuniformed
p3264
F8.822840316841967e-06
sVtruer
p3265
F5.042152239963548e-05
sVstrengthened
p3266
F0.0002679112430501731
sVuntrue
p3267
F0.00023890460235511865
sVdeterminative
p3268
F1.987623005253442e-05
sVacquired
p3269
F5.278087309415592e-06
sVcatastrophic
p3270
F1.692005865737971e-05
sVhither
p3271
F2.256928272865727e-06
sVheeded
p3272
F0.0
sVturbulent
p3273
F1.1161892192982525e-05
sVreiterate
p3274
F7.322798498892333e-06
sVmentioned
p3275
F5.305214340404836e-05
sVidentified
p3276
F5.0327767349779815e-05
sVaccused
p3277
F2.4085572827326203e-06
sVenhanced
p3278
F0.00013965864044476222
sVoperated
p3279
F2.0848595219418097e-06
sVhumane
p3280
F7.300008065690849e-06
sVcloser
p3281
F6.475743506305869e-05
sVdisjunct
p3282
F1.2043299729953525e-08
sVbrittle
p3283
F3.995206695486704e-05
sVinsulting
p3284
F5.1459580662639075e-05
sVflicka
p3285
F1.231086618108066e-05
sVsee-through
p3286
F7.572173572959243e-06
sVillusory
p3287
F2.037311580929923e-05
sVbelow
p3288
F6.93141192128136e-05
sVincreased
p3289
F8.55695026037368e-05
sVsuperb
p3290
F0.0031055028067806015
sVgenius
p3291
F0.0004737421123845734
sVwritten
p3292
F1.4774169722078022e-05
sVquickest
p3293
F0.00019119533956564084
sVarguable
p3294
F9.837197645609005e-05
sVcorrectly
p3295
F3.874055750204953e-06
sVhorrible
p3296
F0.0008410396224172877
sVcrude
p3297
F8.104981001163378e-05
sVprogress
p3298
F0.0
sVsold
p3299
F1.231086618108066e-05
sVpetrified
p3300
F7.89382844522854e-05
sVcomparable
p3301
F0.00019972885204651183
sVattention
p3302
F0.0
sVexplosive
p3303
F0.0001963836407541714
sVopening
p3304
F6.3503068320035256e-06
sVmissing
p3305
F4.058839846701603e-06
sVregretful
p3306
F1.983754773205133e-05
sVindiscriminate
p3307
F7.21732263887492e-05
sVday
p3308
F1.231086618108066e-05
sVkey
p3309
F0.0001482752892503875
sVfanta
p3310
F0.00030194209869941743
sVprecious
p3311
F0.0005503642566928574
sVweary
p3312
F3.6009516377348592e-06
sVoptional
p3313
F0.0
sVproblem
p3314
F3.5406921307100515e-05
sVlegit
p3315
F0.0003446757577798304
sVundetermined
p3316
F0.0
sVdiligent
p3317
F8.226664312384721e-06
sVretrievable
p3318
F2.317718542898396e-05
sVfreely
p3319
F1.654391483353751e-05
sVold-timer
p3320
F6.950801188197709e-07
sVequal
p3321
F0.00014380583707985841
sVfulfilled
p3322
F1.6661331853764983e-05
sVetc
p3323
F6.511760612889258e-06
sVbusted
p3324
F1.2849105329540342e-05
sVbroader-based
p3325
F0.00033130432386755884
sVilliquid
p3326
F0.0
sVhigh-ranking
p3327
F8.364425077053689e-10
sVlofty
p3328
F2.296695631433343e-05
sVglorious
p3329
F0.0024864353825854993
sVotherwise
p3330
F6.879868790012217e-05
sVstrongly
p3331
F7.562712306251042e-06
sVadjusted
p3332
F2.4890548233982454e-06
sVrelevant
p3333
F0.0001390940533073529
sVperiodic
p3334
F1.0428245762716314e-06
sVauthorised
p3335
F1.248610338859777e-05
sVco-financed
p3336
F3.077716545270165e-06
sVupfront
p3337
F7.880206480670206e-06
sVnarrower
p3338
F0.00016451155691255096
sVsupreme
p3339
F0.00013796815278739594
sVgrowin
p3340
F7.902391852780972e-06
sVinvisible
p3341
F9.207054376184212e-05
sVcrafted
p3342
F3.816998103822377e-11
sVdisturbing
p3343
F0.000772973973783663
sVrespect
p3344
F3.008203340757778e-06
sVwithdrawn
p3345
F9.822282457427981e-06
sVflourishing
p3346
F6.936951649096212e-06
sVrusty
p3347
F1.4774159904289079e-05
sVtremendous
p3348
F0.0038959086307344317
sVdecent
p3349
F0.00026423589631599347
sVintimidating
p3350
F0.00018675828125988087
sVdefenseless
p3351
F1.5788571495250787e-05
sVdazzling
p3352
F0.00010580848213170208
sVrestless
p3353
F0.00015045281328136316
sVsocio-economically
p3354
F4.870635526507017e-06
sVblatant
p3355
F6.898094272301134e-06
sVpreoccupied
p3356
F5.682575089504553e-06
sViike
p3357
F4.117189584906498e-06
sVah
p3358
F2.256928272865727e-06
sVupbeat
p3359
F4.47817396245096e-06
sVfreak
p3360
F4.103413072982164e-06
sVmagical
p3361
F3.0331040424006914e-08
sVrecurring
p3362
F4.261522689481344e-05
sVkilled
p3363
F1.2131922128095287e-05
sVclosed
p3364
F1.0683392414237565e-05
sVshaun
p3365
F1.111139962732561e-05
sVfilthy
p3366
F0.00022471761476910453
sVdeterminant
p3367
F2.8386168121585222e-05
sVhomosexual
p3368
F1.2310619968681324e-10
sVcontrolled
p3369
F2.841904422632679e-05
sVwanna
p3370
F1.9355794898234886e-06
sVsufficient
p3371
F0.00010094582842614339
sVmeritorious
p3372
F0.00027289597438012557
sVdefunct
p3373
F1.231086618108066e-05
sVpolicy
p3374
F5.723257553814264e-05
sVfinished
p3375
F3.026869631901005e-05
sVensuring
p3376
F5.934938330805914e-06
sVtense
p3377
F5.7180978026192204e-05
sVpro-active
p3378
F1.1081436312743464e-05
sVbull
p3379
F2.9321968522843166e-05
sVtangible
p3380
F0.00011097954056844944
sVbygones
p3381
F9.661253531665784e-06
sVintelligible
p3382
F3.1268251492161e-05
sVpresent
p3383
F7.738588225207864e-05
sVinconspicuous
p3384
F0.0
sVtroubled
p3385
F0.00016147598323892293
sVwelcoming
p3386
F1.7171382964045777e-10
sVde-insured
p3387
F1.3047362297067416e-06
sVfearful
p3388
F0.00011903453319518427
sVplain
p3389
F0.000144701687161408
sVharder
p3390
F0.001443575049711577
sVirate
p3391
F9.834926468069043e-05
sVspecifically
p3392
F7.373563529964808e-05
sVimrtant
p3393
F7.685340165413056e-06
sVstunning
p3394
F0.002993401089507571
sVwild
p3395
F0.0003474449560098417
sVadvisable
p3396
F0.00039588794940080926
sVdeductible
p3397
F4.16773033655745e-06
sVfrustrating
p3398
F4.85917651226834e-05
sVat
p3399
F9.053678023219196e-10
sVlikable
p3400
F9.52742361287515e-06
sVconcerted
p3401
F1.1941727230123056e-05
sVripe
p3402
F4.727893025740097e-05
sVresident
p3403
F3.4178960067433274e-06
sVunworkable
p3404
F0.0004108298528756573
sVrespected
p3405
F1.5895964675429015e-05
sVoptimistic
p3406
F7.94876064517119e-06
sVraison
p3407
F7.75504062857533e-06
sVuncompetitive
p3408
F0.0
sVwell-behaved
p3409
F2.9913621076585377e-05
sVscanty
p3410
F3.106896246600024e-05
sVco-chair
p3411
F0.0
sVlunatic
p3412
F3.596688224415506e-05
sVvice-president
p3413
F1.282268428746421e-05
sVwatchful
p3414
F2.2361757729360666e-05
sVadded
p3415
F1.1797587377113386e-10
sVjusticiable
p3416
F1.2795840953044338e-05
sVmimi
p3417
F4.96096189851939e-05
sVcross
p3418
F1.1704410221300322e-05
sVundisturbed
p3419
F7.026306739843933e-06
sVfoxy
p3420
F3.6659784086367315e-05
sVadverse
p3421
F0.00011929295240684689
sVstrange
p3422
F0.0017076686718343083
sVswift
p3423
F1.8399853293039916e-05
sVmerciful
p3424
F1.231086618108066e-05
sVgeographical
p3425
F8.858052934227306e-06
sVlargest
p3426
F0.0013594500854632416
sVconfrontational
p3427
F7.3885950291919634e-06
sVfinite
p3428
F7.128839796359413e-06
sVprivileged
p3429
F4.413661388239414e-05
sVdifficult
p3430
F0.0006102200663669138
sVinjured
p3431
F3.128994495085991e-05
sVconflicting
p3432
F8.356826333658713e-06
sVunimaginable
p3433
F0.03761943500015667
sVsubstandard
p3434
F0.0001030643220447986
sVselfish
p3435
F2.602008093341398e-05
sVeccentric
p3436
F8.207236293682511e-06
sVre-routed
p3437
F1.2947946073400506e-06
sVprimary
p3438
F0.0003340105941625223
sVfucked
p3439
F0.000127160008018263
sVimpeccable
p3440
F0.00013250556211614984
sVtighter
p3441
F7.022453180234326e-05
sVdoubtful
p3442
F0.0002444026690632921
sVretard
p3443
F6.467997831295624e-06
sVoff
p3444
F3.672185883713238e-05
sVwarranted
p3445
F6.747509470869243e-06
sVphat
p3446
F3.83370505193008e-05
sVwell
p3447
F0.00046079216536867705
sVsoutheastern
p3448
F1.2027048695195913e-05
sVrife
p3449
F3.54055315095285e-05
sVinsurmountable
p3450
F6.627086220772815e-06
sVtouching
p3451
F4.4061178710157957e-05
sVjuicy
p3452
F3.0283812333432384e-05
sVredeemable
p3453
F7.322798498892333e-06
sVdressed
p3454
F1.6410530885064297e-05
sVfirstly
p3455
F8.27377878782234e-07
sVsalient
p3456
F6.388447502337563e-05
sVuser-friendly
p3457
F9.743839751191605e-05
sVlatest
p3458
F0.00011323245680896926
sVridonc
p3459
F1.634546987473979e-05
sVtaller
p3460
F0.00030734677374923353
sVinoperable
p3461
F2.460180366923108e-06
sVwell-treated
p3462
F1.231086618108066e-05
sVenormously
p3463
F8.492584226184864e-05
sVless
p3464
F0.0003502664375661765
sVincreasingly
p3465
F5.006884280367078e-06
sVaccurate
p3466
F0.00022029874624532222
sVdomestic
p3467
F1.403568034122621e-05
sVmistaken
p3468
F0.00028057585921306504
sVinterim
p3469
F7.410942790308271e-06
sVdistant
p3470
F7.53907136188702e-05
sVping-pong
p3471
F2.0359993869369663e-05
sVadvertised
p3472
F1.2843075074059278e-06
sVminiscule
p3473
F3.9156846356873206e-05
sVexemplary
p3474
F0.0014113506703008938
sVkeen
p3475
F0.00011250445307272032
sVafflicted
p3476
F4.6973295099808195e-05
sVgenerous
p3477
F5.1450875681176196e-05
sVrapid
p3478
F0.0001308375764797968
sVsublime
p3479
F5.688691368659593e-05
sVcinematography
p3480
F0.0
sVfar-reaching
p3481
F0.0002241893308240992
sVterrorized
p3482
F1.1082427803559626e-05
sVdeprived
p3483
F1.0513617746946372e-05
sVtransparent
p3484
F6.972339292473696e-05
sVflame-retardant
p3485
F1.231086618108066e-05
sVattractive
p3486
F0.00036804020778019
sVwet
p3487
F7.986325722482099e-10
sVladdie
p3488
F1.231086618108066e-05
sVunprecedented
p3489
F5.190015081411468e-05
sVsmart
p3490
F0.0002751581936000004
sVdivided
p3491
F2.1131129681726683e-05
sVinnocents
p3492
F7.254747485609902e-07
sVdefinitive
p3493
F1.693242126030455e-05
sVample
p3494
F5.743285579078383e-05
sVtesty
p3495
F5.191397877366398e-05
sVthicker
p3496
F4.6868535931601695e-05
sVlivid
p3497
F7.276671886413832e-05
sVacceding
p3498
F1.1797587377113386e-10
sVhistoric
p3499
F1.7814625159339765e-06
sVfive
p3500
F1.231086618108066e-05
sVknow
p3501
F7.316621108503257e-06
sVunseen
p3502
F0.0
sVdenser
p3503
F1.231086618108066e-05
sVimmediately
p3504
F1.812981332496091e-05
sVcondescending
p3505
F1.231086618108066e-05
sVfools
p3506
F6.467997831295624e-06
sVprominent
p3507
F0.00037804215376752295
sVimproper
p3508
F0.0004989068990267858
sVdisplaced
p3509
F8.172386416447884e-06
sVnecessary
p3510
F0.00013198980444129193
sVhelpful
p3511
F0.0002737995050968313
sVlost
p3512
F3.064999936131745e-05
sVinquisitive
p3513
F0.00013559838897066653
sVsafest
p3514
F3.174086671341695e-05
sVvibrant
p3515
F1.2087154623144442e-05
sVrealist
p3516
F1.4817721748458314e-05
sVuser-defined
p3517
F9.998599111395276e-07
sVadmitted
p3518
F3.9961468016237995e-06
sVsized
p3519
F3.259607755117749e-05
sVwarned
p3520
F8.859167638789512e-06
sVregulated
p3521
F5.756149962851582e-06
sVsoft
p3522
F8.857536658437424e-05
sVregardless
p3523
F2.1415549017772878e-05
sVitalian
p3524
F1.7938335952610247e-05
sVaccessible
p3525
F6.855564834345821e-05
sVfruitless
p3526
F3.83929603310606e-05
sVclassical
p3527
F0.0003380160979315081
sVstumpy
p3528
F3.874017010034868e-11
sVforeseeable
p3529
F3.225538926169665e-05
sVscared
p3530
F0.00020470882823416032
sVflagrant
p3531
F0.00012474182273758722
sVholier
p3532
F0.0
sValive
p3533
F4.2951340932172755e-05
sVfree-of-charge
p3534
F4.16773033655745e-06
sVwarmer
p3535
F0.00010105518671183668
sVabolitionist
p3536
F0.0
sVflush
p3537
F1.1222739077529881e-05
sVproper
p3538
F0.00016904979293001172
sVhome
p3539
F2.256928272865727e-06
sVfranco
p3540
F9.552445013045227e-06
sVsupportive
p3541
F5.445287128017582e-05
sVwetter
p3542
F8.207650331143476e-06
sVlead
p3543
F2.0063806782417817e-05
sVsufficiently
p3544
F8.617990286204079e-05
sVbroad
p3545
F0.00045979800940410887
sVleveraged
p3546
F1.231086618108066e-05
sVtraumatic
p3547
F0.0010200802184340127
sVsnappy
p3548
F6.8061727631044855e-06
sVrewarding
p3549
F1.2230938314853457e-05
sVeconomical
p3550
F0.0002503139517986397
sVscrewed
p3551
F2.621447179731048e-05
sVkiddo
p3552
F2.0652736515583546e-05
sVblurry
p3553
F1.8316964918140905e-05
sVperplexed
p3554
F0.00023489809186494565
sVacross-the-board
p3555
F1.4146757654441193e-05
sVinaccurate
p3556
F0.00014748273848263498
sVdesperate
p3557
F0.0009080168902374618
sVslight
p3558
F0.000264137202880684
sVastounding
p3559
F0.004538996747307391
sVself-sustainable
p3560
F1.2466197578303279e-05
sVcombative
p3561
F2.2919032574920304e-07
sVdisrespectful
p3562
F6.1022060749687154e-05
sVoverall
p3563
F3.361199674083634e-05
sVuptight
p3564
F4.120370685573377e-05
sVdistinctive
p3565
F0.0008119056843071523
sVprohibited
p3566
F1.4774169722078022e-05
sValthough
p3567
F5.006909314287781e-06
sVhospitable
p3568
F1.0221677958498917e-05
sVgandalf
p3569
F8.38295945391556e-06
sVwell-informed
p3570
F1.4472251425965364e-05
sVunchangeable
p3571
F0.0
sVsimpler
p3572
F0.0004256300750722587
sVabout
p3573
F0.0004222287367027933
sVrare
p3574
F0.0004394877867814901
sVunwelcome
p3575
F4.033126963806244e-06
sVfreedom
p3576
F4.16773033655745e-06
sVinterlinked
p3577
F2.8864895588696337e-05
sVsinister
p3578
F0.0
sVrecognized
p3579
F2.8874601254846978e-05
sVcompatible
p3580
F2.71817290673067e-05
sVwell-served
p3581
F1.231086618108066e-05
sVrecognizes
p3582
F1.7106153484213472e-06
sVmulti-disciplinary
p3583
F1.0015783946684852e-05
sVpersuaded
p3584
F1.5137983448704518e-05
sVdistressed
p3585
F8.290107450969415e-05
sVbaseless
p3586
F0.0001966625434044171
sVequally
p3587
F2.3733163131389864e-05
sVown
p3588
F3.719980445948764e-05
sVpolished
p3589
F0.0
sVunsustainable
p3590
F0.003535952883494421
sVunfavourable
p3591
F2.8991774070101238e-05
sVpreviously
p3592
F1.0598087563264938e-05
sVemotive
p3593
F3.265507632610401e-05
sVfunctional
p3594
F2.1201347668644395e-05
sVsmarty
p3595
F1.4876880304303072e-10
sVlife-long
p3596
F2.7291596587086456e-06
sVscandalous
p3597
F0.0010663350894057732
sVungrounded
p3598
F1.966605767986499e-09
sVfemale
p3599
F0.0
sVlawful
p3600
F0.00019610905171326993
sVscreened
p3601
F9.979047073669013e-07
sVpointless
p3602
F0.00023755338932462182
sVmere
p3603
F4.61609893852361e-05
sVsignificantly
p3604
F0.0
sVlasting
p3605
F6.546944238166725e-05
sVterminated
p3606
F7.4345339560994845e-06
sVwack
p3607
F3.1016928426032196e-05
sVadditional
p3608
F0.00014441318111591754
sVself-explanatory
p3609
F0.0002483831351634265
sVpopulated
p3610
F8.684040590119213e-11
sVsecret
p3611
F6.123615734450602e-06
sVkidding
p3612
F7.05087461143537e-05
sVinternationaux
p3613
F6.038540255640084e-06
sVkorean
p3614
F2.965525831735979e-05
sVmuch
p3615
F0.0005889415594073549
sVutopian
p3616
F0.0
sVrecommendable
p3617
F2.5305938103403367e-09
sVbiggest
p3618
F0.0003804047287325675
sVtroubling
p3619
F0.0011314129560611283
sVunequivocal
p3620
F7.303141603883461e-05
sVnaturally
p3621
F1.0414336134704673e-05
sVrevised
p3622
F1.2234663962909125e-05
sVnorth
p3623
F1.6810583335071795e-05
sVforthwith
p3624
F1.1200395033470668e-05
sVtreacherous
p3625
F1.8498154586316797e-06
sVhazardous
p3626
F1.676633443214272e-05
sVbut
p3627
F6.221505523762164e-06
sVdesignated
p3628
F8.524288275499978e-06
sVinsured
p3629
F7.378349352638878e-06
sVneutral
p3630
F6.854493536961554e-07
sVcontradictory
p3631
F2.696621219307844e-05
sVnut
p3632
F9.854795607955785e-05
sVautomated
p3633
F0.0
sVremote
p3634
F3.239381496257433e-05
sVhighest
p3635
F0.0012304411348543498
sVillustrative
p3636
F8.322359700019884e-06
sVpartially
p3637
F2.811298403425364e-10
sVstraightaway
p3638
F1.720930438862603e-05
sValso
p3639
F1.6514945797345805e-05
sVwise
p3640
F0.0002554145996661898
sVevident
p3641
F0.00019343658107393705
sVinstructive
p3642
F0.00018718019395442973
sVdangerous
p3643
F9.74299340187041e-05
sVheavyset
p3644
F0.0
sVofficial
p3645
F1.8758777528356592e-05
sVsmooth
p3646
F0.0007812718698946368
sVall-encompassing
p3647
F2.542481865362804e-05
sVplaced
p3648
F4.8550929585413854e-08
sVcruel
p3649
F3.135031643865856e-05
sVdistribution
p3650
F0.00013664585300236212
sVthanan
p3651
F8.615405977409503e-11
sVcordial
p3652
F0.0
sVnon-existent
p3653
F5.4050176345864044e-05
sVsuccessfully
p3654
F3.874055750204953e-06
sVhorrific
p3655
F0.0010215284489686913
sVunaffordable
p3656
F8.832098326007002e-06
sVinadequate
p3657
F0.00023350651741200844
sVuniversal
p3658
F4.1195878666493224e-05
sVmeaningless
p3659
F0.00014147296412649543
sVscary
p3660
F0.0013731753906122569
sVinter-connected
p3661
F4.469496722530946e-06
sVwell-defined
p3662
F3.852203995570879e-06
sVunsavory
p3663
F9.754962262682252e-05
sVeducation
p3664
F3.441374278011983e-10
sVhappen
p3665
F1.8135004894436067e-10
sVdeeper
p3666
F0.003917685278335083
sVrenowned
p3667
F1.3344071926934423e-05
sVcompared
p3668
F5.006884280367078e-06
sVrelaxing
p3669
F0.0
sVagreed-upon
p3670
F0.0
sVincredible
p3671
F0.026574353166462308
sVfortunate
p3672
F0.00015578338486918377
sVdeadly
p3673
F0.0001742933209219929
sVbaby-sitting
p3674
F1.231086618108066e-05
sVoffensive
p3675
F1.4543761599966089e-05
sVlately
p3676
F3.0157775645403633e-06
sVsurreal
p3677
F0.000494021198551467
sVother
p3678
F0.00012256842031929148
sVonboard
p3679
F1.231086618108066e-05
sVcrummy
p3680
F2.453702716400682e-06
sVsick
p3681
F0.0012318925823902168
sVnon-self-executing
p3682
F4.598283578433808e-06
sVpredominant
p3683
F0.00010340118548928972
sVreckless
p3684
F0.0010858467548017468
sVhorny
p3685
F0.00013227259194496026
sVecstatic
p3686
F8.430136190217837e-05
sVinsupportable
p3687
F0.0023559312938079475
sVinescapable
p3688
F5.305620017631044e-05
sVstay
p3689
F2.9247804069251153e-05
sVecological
p3690
F0.0003467452053588001
sVaffixed
p3691
F1.231086618108066e-05
sVkinda
p3692
F2.4817486480183846e-06
sVpriced
p3693
F4.275676861502942e-10
sVfriends
p3694
F3.490782866490108e-10
sVconstant
p3695
F2.66673697943739e-05
sVtwo-fold
p3696
F4.429556529274674e-05
sVprevalent
p3697
F0.00010128414277921039
sVpersistent
p3698
F0.00011604759804081148
sVintentionally
p3699
F1.9244882397559806e-05
sVgrimmer
p3700
F2.998809696365017e-05
sVnascent
p3701
F1.7077180536492913e-06
sVunderstand
p3702
F2.9656667021796247e-06
sVunspeakable
p3703
F0.0
sVrepresentative
p3704
F5.592092379564628e-08
s.