(dp0
Vlimited
p1
F0.00010535088750168363
sVsuicidal
p2
F3.407856526065029e-05
sVsearchable
p3
F4.978022773797283e-06
sVsecondly
p4
F0.000332046634962851
sVconsolidated
p5
F1.2819049762839138e-06
sVdesirable
p6
F0.0002968976697067329
sVfoul
p7
F2.354601891884856e-05
sVasian
p8
F2.912008267215886e-06
sVcontroversial
p9
F4.530437601525585e-05
sVcaptain
p10
F0.0
sVself-reliant
p11
F7.434491924670665e-06
sVundisputed
p12
F7.586544102755998e-06
sVsomeplace
p13
F2.771840974747687e-05
sVeligible
p14
F1.4966187913589552e-05
sVpoorest
p15
F0.0004796021383211638
sVboundless
p16
F8.148864360261909e-05
sVunanswered
p17
F1.3221766761047141e-05
sVneighbours
p18
F1.231086618108066e-05
sVsorry
p19
F0.00037371148556168384
sVworth
p20
F5.3323855600027904e-05
sVdivergent
p21
F1.9059896345876578e-06
sVupdated
p22
F2.5050254603663513e-05
sVrational
p23
F6.56330369751838e-05
sVco-operation
p24
F9.678073463094445e-06
sVdynamic
p25
F2.5829575590719574e-05
sVokey
p26
F1.540740280795682e-05
sVmla
p27
F2.1914332414073733e-07
sVevery
p28
F5.3145882203413613e-05
sVjack
p29
F3.9053647349305104e-10
sVthriving
p30
F1.4416304532833513e-05
sVstrictest
p31
F1.123097197842627e-05
sVcourageous
p32
F0.00017943015501286955
sVvast
p33
F0.0013027207633336635
sVbravest
p34
F1.9120921453576873e-05
sVschool
p35
F4.924051029370537e-10
sVreciprocal
p36
F8.759708585345441e-05
sVcourrier
p37
F4.4400606829583445e-06
sVwell-maintained
p38
F2.544662093850397e-05
sVcorrect
p39
F0.00034485630907522705
sVadmissible
p40
F8.864347924961747e-05
sVunrelated
p41
F3.87145838183542e-06
sVfast-switched
p42
F0.0
sVdeplorable
p43
F7.011553994841294e-05
sVreliable
p44
F0.0001152456027561991
sVfavoured
p45
F4.452081336937615e-10
sVcher
p46
F5.144439434721139e-05
sVtenuous
p47
F3.569688052260899e-05
sVnigh
p48
F5.935824628465787e-06
sVconcise
p49
F9.029938267199987e-05
sVconsistent
p50
F0.00011053146616750593
sVdirect
p51
F3.917415135131156e-05
sVelegant
p52
F4.8326797039175936e-05
sVlikely
p53
F9.282154375694683e-05
sVlouder
p54
F6.101052266435022e-05
sVrigorous
p55
F9.075405246275992e-05
sVsubordinate
p56
F3.890220539258618e-06
sVestimated
p57
F1.231086618108066e-05
sVeven
p58
F0.00014875557173765565
sVestablished
p59
F7.037164420785165e-05
sVoldest
p60
F1.1383381982063532e-09
sVincompatible
p61
F1.285907488842884e-05
sVruthless
p62
F3.053903676457679e-05
sVminuscule
p63
F7.145235938732622e-05
sVexactly
p64
F0.0005741892249720342
sVselected
p65
F1.8969167578138664e-09
sVprofitability
p66
F7.852173281061038e-06
sVsupplied
p67
F8.13581070615388e-16
sVliberated
p68
F8.963724752100096e-06
sVabove
p69
F0.0005800302208865753
sVevey
p70
F2.0227957272112013e-05
sVresilient
p71
F5.412001809850398e-05
sVnew
p72
F6.894168887585232e-05
sVnet
p73
F0.0
sVincreasing
p74
F0.00019055201272791483
sVever
p75
F9.399558869530822e-06
sVadmiral
p76
F1.2994721502675108e-05
sVevolving
p77
F1.0832144118282384e-05
sVfeisty
p78
F2.5249431522086085e-05
sVrichest
p79
F8.831738535768622e-05
sVunseemly
p80
F5.2216699440433754e-06
sVremarried
p81
F1.645651187187431e-08
sVreported
p82
F5.763657271381752e-05
sVsmokin
p83
F0.0006185291023700176
sVactive
p84
F3.784252855852357e-05
sVdry
p85
F1.4774156631666568e-05
sVloverly
p86
F0.0002476813791759186
sVchaotic
p87
F5.018147338874911e-06
sVrubbish
p88
F5.72342821433951e-05
sVelaborate
p89
F6.644901235511135e-06
sVchanged
p90
F2.0589637131620685e-05
sVexpedited
p91
F9.121555138101505e-06
sVsuperstitious
p92
F1.231086618108066e-05
sVlonesome
p93
F3.918509499301288e-05
sVsymmetrical
p94
F0.0
sVstipulated
p95
F2.8639122601529092e-05
sVsettled
p96
F4.281753873227703e-05
sVastute
p97
F3.3880805535554134e-05
sVmutual
p98
F5.130516487064436e-06
sVfantastic
p99
F0.00492254721751723
sVsecure
p100
F0.00012845697922425864
sVelaborated
p101
F2.8066433678699774e-10
sVspooky
p102
F9.736366916140776e-05
sVexplained
p103
F2.3912961993611347e-10
sVinequitable
p104
F3.583481123038465e-05
sVerected
p105
F1.3657806396999105e-10
sVbro
p106
F4.508220966489786e-09
sVvisible
p107
F0.0001083304587333264
sVsizeable
p108
F0.0006489071869666716
sVachievable
p109
F0.00010341163983751667
sVstern
p110
F5.059675278734865e-06
sVoff-site
p111
F7.954247170791503e-06
sVtotal
p112
F1.6856255092289668e-05
sVreceivable
p113
F3.7026982769961874e-05
sVnegative
p114
F6.571156810406797e-05
sVwell-trained
p115
F4.084318879762981e-08
sVcalm
p116
F9.924364703536169e-05
sVright-
p117
F1.6856255092289668e-05
sVtell
p118
F2.4676287539266732e-05
sVravishing
p119
F0.0016958240792290867
sVbreathe
p120
F4.05718904142302e-06
sVtolerated
p121
F1.231086618108066e-05
sVgriet
p122
F3.0206083347044242e-06
sVstandardized
p123
F1.260048862218281e-05
sVholy
p124
F7.859454991117206e-05
sVwary
p125
F2.4800766796756434e-05
sVsuccessful
p126
F0.0005301461041065059
sVnaive
p127
F8.936558971204766e-06
sVhereby
p128
F2.6347591148292203e-05
sVacceded
p129
F4.152331979858335e-06
sVphony
p130
F2.670092216482421e-05
sVaware
p131
F0.0003062115680262886
sVwarm
p132
F0.00013807151201012635
sVexcellent
p133
F0.001963229897471454
sVcontinual
p134
F2.9176564263477428e-06
sVadamant
p135
F9.682626765304126e-06
sVoutdated
p136
F3.305242411152447e-07
sVimmature
p137
F0.001890557614944686
sVsupplemental
p138
F2.9605500586104976e-05
sVsegregated
p139
F0.0
sVme
p140
F6.00616303358294e-05
sVma
p141
F1.5473299081723526e-10
sVcheapest
p142
F3.75025473348178e-05
sVwork
p143
F0.002755219009334264
sVdaft
p144
F0.000126690906748307
sVsweeter
p145
F0.000792640548107886
sVhenry
p146
F1.2266146877592846e-05
sVaddictive
p147
F1.9977912552482864e-05
sVindicated
p148
F2.5114950502311208e-05
sVjoyous
p149
F1.2310743074880962e-05
sVunjust
p150
F1.6555415248444933e-05
sVcited
p151
F3.7616921223173645e-05
sVorganized
p152
F2.558423103067236e-05
sVoverheard
p153
F1.0131984770441744e-06
sVneed-to-know
p154
F3.541436256820513e-07
sVpluralistic
p155
F6.500156953886724e-06
sVdavid
p156
F4.2346757809723004e-05
sVlooser
p157
F0.00017779109526593184
sVabsolute
p158
F0.00027177838355015965
sVwell-armed
p159
F6.15543309054033e-06
sVaging
p160
F1.3939183872548227e-08
sVconfidential
p161
F3.696387002864947e-06
sVillicit
p162
F6.017782332204063e-06
sVhon
p163
F7.038678349249082e-05
sVverify
p164
F5.103062170339962e-06
sVnuts
p165
F8.881249853805824e-05
sVfunky
p166
F4.295800140490075e-05
sVfairer
p167
F0.0011102160869546041
sVvery
p168
F0.00038153112137467995
sVhot
p169
F0.0018477417563038667
sVmorbid
p170
F1.0319122593022248e-05
sVadjacent
p171
F1.062619032935881e-05
sVtoxic
p172
F3.137531403423374e-07
sVwidespread
p173
F0.0003706015377234314
sVfaulty
p174
F5.558701802625906e-06
sVpreferable
p175
F0.0002835771472800392
sVmassive
p176
F0.0007071724250092703
sVbadly
p177
F3.89063658061471e-05
sVdoable
p178
F6.532941120921844e-06
sVnon-exhaustive
p179
F2.991965153044342e-05
sVinsecure
p180
F2.2397768240079874e-05
sVearlier
p181
F0.00015789073837968074
sVvicious
p182
F1.313199474086885e-05
sVdemanding
p183
F4.566438835642951e-05
sVthankyou
p184
F2.187440243116458e-05
sVmodest
p185
F0.000135212834989524
sVfragile
p186
F0.00011848956560959347
sVimmoral
p187
F0.0001699265761833912
sVmeaningful
p188
F0.00018797193987849756
sVparallel
p189
F2.486788640071895e-05
sVmoister
p190
F8.207650331209775e-06
sVcomplacent
p191
F5.8231669961121016e-05
sVelusive
p192
F3.03002979146465e-05
sVsplendid
p193
F0.021609316244542588
sVthird
p194
F0.00045439928389738783
sVhasty
p195
F6.7899422101367e-05
sVacknowledged
p196
F3.95286112412285e-06
sVstand-alone
p197
F7.434491924670665e-06
sVcold-rolled
p198
F6.24842102752944e-05
sVencompassing
p199
F1.5104101218726248e-05
sVrogue
p200
F0.00011696146117230024
sVgreen
p201
F0.00027637557786203457
sVpuny
p202
F0.0
sVuninsured
p203
F1.7348739142404353e-06
sVdemocratic
p204
F2.7574333180211706e-05
sVnonsensical
p205
F3.87217087710061e-05
sVwing
p206
F1.685608653142442e-10
sVunsteady
p207
F2.871189985445113e-05
sVlonger
p208
F0.00013463396939743312
sVexecuted
p209
F2.578690547838279e-05
sVwelcomed
p210
F6.7019802494951155e-06
sVover
p211
F0.00023272930791729866
sVoff-the-record
p212
F3.541436256820513e-07
sVinconclusive
p213
F7.289654808642098e-05
sVsatisfied
p214
F0.0003516417774201745
sVproportionate
p215
F0.0001658125461598389
sVfrankenstein
p216
F0.0
sVfinest
p217
F0.00609202706865999
sVghastly
p218
F0.0001444650450047662
sVinnovative
p219
F7.3861331155164e-10
sVresponsive
p220
F0.00016146647707312629
sVslimmer
p221
F8.820167593572958e-06
sVtalkative
p222
F6.901633691818582e-05
sVbefore
p223
F1.587544161594966e-05
sVom-mazing
p224
F0.0012222234784158628
sVindispensible
p225
F7.001857352214088e-05
sVby-election
p226
F1.3989600219222532e-05
sVfit
p227
F0.001441049167103307
sVfun-loving
p228
F1.2736980074948644e-05
sVpersonal
p229
F5.328482616556106e-05
sVcomprehend
p230
F3.6350462408247504e-06
sVbetter
p231
F0.0015238918059470527
sVbottled
p232
F1.231086618108066e-05
sVcompelling
p233
F6.564173758089955e-05
sVdifferently
p234
F5.247437423095468e-06
sVinsubstantial
p235
F3.364586389345029e-06
sVworkable
p236
F6.981706404681169e-05
sVnobler
p237
F4.3785547314461264e-05
sVadmirable
p238
F0.0007953070751009446
sVeasier
p239
F0.00032551433963905896
sVpleasurable
p240
F0.0001293264728086638
sVmaximal
p241
F3.837942162607347e-06
sVthen
p242
F4.9690287549854215e-05
sVthem
p243
F1.870934283920965e-05
sVaffected
p244
F3.605455854039439e-05
sVwoken
p245
F2.4347352175828673e-05
sVinterdisciplinary
p246
F4.366544130419982e-06
sVunemployed
p247
F6.027270973138752e-06
sVsafe
p248
F7.903494306137704e-05
sVdiseased
p249
F0.0002811307794323099
sVrepulsive
p250
F3.4058128495574476e-05
sVshameful
p251
F0.00016999442130573487
sVmultidimensional
p252
F1.4173358387545514e-05
sVsixteen
p253
F5.701499059243802e-07
sVundeveloped
p254
F1.0121010606781888e-06
sVleaner
p255
F8.617808961271447e-05
sV-ready
p256
F0.004175969790538155
sVnotified
p257
F1.8788096674832411e-06
sVreasonably
p258
F3.196334943266754e-05
sVclassified
p259
F3.541436256820513e-07
sVl
p260
F1.2152266127595657e-05
sVdroll
p261
F2.952811931634254e-05
sVdeficient
p262
F0.0003032267198134532
sVspotless
p263
F8.854237812929107e-06
sVreasonable
p264
F0.00026534055204056135
sVend-to-end
p265
F7.099020080687804e-06
sVentitled
p266
F1.6856255092289668e-05
sVlow-skilled
p267
F4.32900449300336e-06
sVluck
p268
F7.232076212318746e-05
sVfairly
p269
F6.977142447979792e-05
sVskint
p270
F2.667895756105283e-06
sVdoomed
p271
F2.665757453907289e-06
sVdisplacement
p272
F1.2946782811032029e-06
sVworded
p273
F6.115886607454341e-10
sVchubby
p274
F0.0
sVdispleased
p275
F7.436182274993898e-05
sVfirst-class
p276
F6.68015352909689e-05
sVblinded
p277
F1.0683716980015756e-07
sVcertifiable
p278
F0.00016715395337629432
sVice-cold
p279
F1.7068755973195898e-05
sVespeciaily
p280
F3.2099507983358915e-05
sVrestricted
p281
F2.8008839647719053e-05
sVwide-open
p282
F0.0
sVhooked
p283
F3.164667974281377e-05
sVcontent
p284
F8.153582478852162e-05
sVdrawn-out
p285
F2.462173236216132e-05
sVsluggish
p286
F7.328359262524339e-05
sVassured
p287
F1.88129989852021e-05
sVu.s.
p288
F6.891124740935669e-06
sVlittle
p289
F0.0007508461182822252
sVfree
p290
F7.171147473823687e-05
sVstandard
p291
F4.896468754807056e-05
sVaforesaid
p292
F1.7360167559566753e-05
sVtwo-
p293
F1.2056379182097847e-08
sVelle
p294
F1.2994671321703529e-05
sVco-funding
p295
F3.077716545270165e-06
sVwanted
p296
F1.231086618108066e-05
sVcertified
p297
F7.360819338518552e-07
sVenormous
p298
F0.0011083557092307274
sVcreated
p299
F1.7371462799642254e-05
sVhorseshit
p300
F7.289480150597664e-05
sVinexpensive
p301
F4.9161859031014866e-05
sVlongterm
p302
F1.7459234516861921e-06
sVdispersal
p303
F1.231086618108066e-05
sVflawless
p304
F0.00036243282653449643
sVdisturbed
p305
F6.636551117415045e-06
sVspeedy
p306
F2.2541531055116294e-05
sVmulti-ethnic
p307
F0.0
sVtempting
p308
F0.00020488810419143553
sVrepealed
p309
F1.231086618108066e-05
sVloud
p310
F9.550116020980218e-05
sVfuckin
p311
F8.614486928714972e-06
sVenraged
p312
F3.096003956953427e-05
sValready
p313
F4.855272058657806e-06
sVdaunting
p314
F0.0013053916252430647
sVstate-run
p315
F5.095529215713647e-06
sVunfilled
p316
F2.8302283941404525e-05
sVencouraging
p317
F5.209568340432281e-05
sVrank
p318
F0.0
sV-mentioned
p319
F3.0291009539141014e-05
sVunspecified
p320
F0.0
sVanother
p321
F1.6683913493787838e-05
sVcomin
p322
F2.6089615617107086e-06
sVsober
p323
F1.231086618108066e-05
sVthick
p324
F4.066618187215501e-05
sVwell-formed
p325
F5.0329297407159344e-05
sVpragmatic
p326
F1.721526062245411e-05
sVsimilarly
p327
F1.6432356031063824e-05
sVopportunity
p328
F5.935824628465787e-06
sVtop
p329
F0.0004380973440834054
sVtired
p330
F2.3272591445976284e-05
sVprotracted
p331
F7.848002066398324e-05
sVtwisted
p332
F8.737492735715629e-06
sVheights
p333
F0.0
sVplentiful
p334
F3.358154817442853e-05
sVneeded
p335
F6.248822933077182e-05
sVresponsable
p336
F5.879606319639441e-06
sVmaster
p337
F9.679236519328162e-06
sVlisted
p338
F4.1011484389750415e-05
sVtom
p339
F1.9059896345876578e-06
sVinconvenient
p340
F2.5439440902439068e-05
sVoveremotional
p341
F1.8211414866053046e-05
sVbitter
p342
F0.00020832226713251632
sVdamaging
p343
F1.3617403561126245e-05
sVilliterate
p344
F1.231086618108066e-05
sVindiscreet
p345
F5.103062170339962e-06
sVenhancing
p346
F1.9375169687583795e-05
sVdiversified
p347
F3.048505742907095e-06
sVtrippy
p348
F5.202761992804325e-05
sVggood
p349
F3.362858118580564e-05
sVprouder
p350
F0.0
sVpredictable
p351
F4.351739518343927e-05
sVwestern
p352
F1.4362893535320533e-05
sVsomewhat
p353
F9.488712057730932e-06
sVlegally
p354
F9.204133975769096e-06
sVwasted
p355
F2.3378497937671614e-05
sVlonger-term
p356
F1.9920869289309707e-05
sVunsanitary
p357
F0.0
sVreimbursable
p358
F7.322798498892333e-06
sVpeculiar
p359
F0.00015329207266748091
sVpositively
p360
F9.682691315074433e-06
sVself-governing
p361
F1.3951667659792916e-05
sVpast
p362
F2.4548097937768683e-05
sVsurer
p363
F3.194871261217592e-05
sVlast
p364
F7.210725198620742e-05
sVdisciplined
p365
F1.528515166253949e-06
sVenabled
p366
F9.847562640083287e-06
sVsecond
p367
F0.000544804340998061
sVunmistakable
p368
F4.146298161042343e-05
sVfinal
p369
F1.3982571681945356e-05
sVwell-positioned
p370
F0.0006643793727105739
sVobscure
p371
F4.9537746677891666e-05
sVidle
p372
F6.027270973138752e-06
sVfabulous
p373
F0.005524096205886217
sVsilly
p374
F0.0003691055576598652
sVhistorical
p375
F4.032842530772894e-06
sVhigh-cost
p376
F8.503482205645649e-06
sVforceful
p377
F5.202109751023605e-05
sVrecheck
p378
F0.0
sVhonourable
p379
F5.736273496802483e-05
sVseminal
p380
F2.4137870902995245e-05
sVdonkey
p381
F4.067964466337992e-06
sVmax
p382
F3.837942162607347e-06
sVmodern
p383
F6.301944954046483e-06
sVantagonistic
p384
F5.130516487064436e-06
sVscrewy
p385
F0.00014897171961802453
sVcorny
p386
F8.116544570234376e-10
sVseen
p387
F1.318278916201449e-09
sVunaffected
p388
F6.036010490101412e-05
sVrelatively
p389
F1.291256776064331e-05
sVquieter
p390
F9.681440425449855e-05
sVimplemented
p391
F1.4774169722078022e-05
sVgenuine
p392
F0.00011963151689748214
sVacademic
p393
F2.0283806234867817e-05
sVconvenient
p394
F0.00032229397898717315
sVlatter
p395
F3.965773839855342e-05
sVresponsible
p396
F0.00012993426150158062
sV-
p397
F4.197650124091809e-05
sVisolated
p398
F2.4089953299600375e-08
sVthorough
p399
F0.00019765987143015692
sVstupid-looking
p400
F1.312177206238268e-05
sVfitting
p401
F0.00021028347896810367
sVamusing
p402
F0.0001841915611819744
sVeffectiveness
p403
F2.376688511884525e-05
sVcompleted
p404
F2.1186348823878938e-05
sVpropitious
p405
F2.7320524672508564e-05
sVconducive
p406
F4.493420413432655e-05
sVhurtful
p407
F8.454410471038916e-05
sVstarved
p408
F1.063220019477425e-05
sVthough
p409
F0.0
sVthrilled
p410
F0.0001267810952942865
sVdoin
p411
F2.220437808001845e-05
sVprohibitive
p412
F1.4788783722498989e-05
sVshorty
p413
F2.6586519419034992e-06
sVregular
p414
F4.896434838521839e-05
sVplenty
p415
F0.00018126039107804108
sVwhar
p416
F1.9059896345876578e-06
sVgrave
p417
F0.0003047170508131103
sVdummy
p418
F1.3992760549617453e-05
sVhardto
p419
F2.094738090770932e-05
sVmedical
p420
F1.231086618108066e-05
sVdeliberate
p421
F0.002586400031802653
sVtreaty
p422
F3.0291009539141014e-05
sVorderly
p423
F8.85417878605337e-06
sVentertaining
p424
F0.0001388786898485511
sVoutnumbered
p425
F1.2265748569746139e-05
sVannoyed
p426
F5.1976619103804794e-05
sVincomplete
p427
F9.265646134218328e-05
sVfussy
p428
F5.463752919332227e-05
sVsaying
p429
F2.4676287539266732e-05
sVoverpriced
p430
F0.0
sVhunger
p431
F1.0632288795262336e-05
sVrandom
p432
F3.0221253485810922e-05
sVprecarious
p433
F5.0195388315022535e-05
sVdopey
p434
F0.0
sVqueer
p435
F3.695433453040045e-05
sVlethal
p436
F0.000324395495884776
sVsubtle
p437
F0.000152292551614137
sVjam-packed
p438
F1.3361557085306335e-05
sVthirds
p439
F0.0002531180005355077
sVabreast
p440
F8.189795467748743e-06
sVtoast
p441
F4.1158374026656065e-06
sVapace
p442
F5.847182626142765e-06
sVrock-hard
p443
F1.0491432183454055e-05
sVbusy
p444
F1.6248038054591895e-05
sVre-appointed
p445
F1.539752359136952e-06
sVreasonnable
p446
F6.26831810596496e-05
sVundignified
p447
F2.8341297773391785e-05
sVelite
p448
F7.360819338518552e-07
sVfair-minded
p449
F0.0
sVappreciated
p450
F5.123578024914023e-05
sVgutsy
p451
F1.4689419753493299e-05
sVdeepest
p452
F2.5323568614157757e-05
sVrich
p453
F4.697529470692446e-05
sVfolks
p454
F2.0227957272112013e-05
sVadequate
p455
F0.00026249898375887374
sVwell-represented
p456
F1.231086618108066e-05
sVdo
p457
F1.231086618108066e-05
sVincorrect
p458
F0.00012841369537273172
sVundecided
p459
F1.0838171736613892e-06
sVwide
p460
F0.0009459108045743196
sVrigght
p461
F0.0001442265864699663
sVscalable
p462
F1.231086618108066e-05
sVpreferred
p463
F2.1509472768477924e-05
sVforemost
p464
F9.933364841726466e-05
sVgeek
p465
F2.665757453907289e-06
sVsmug
p466
F7.898382868922474e-06
sVnathan
p467
F1.6856255092289668e-05
sVnasty
p468
F0.00026985978309588003
sVconsiderate
p469
F1.0895601446522568e-10
sVinfrequent
p470
F0.00013340164784882643
sVintroduced
p471
F1.3738820850756714e-05
sVidiotic
p472
F4.9030665667209474e-05
sVrepugnant
p473
F8.45831081986703e-06
sVpro-choice
p474
F0.0
sVmonumental
p475
F0.00014546957528584952
sVautomatic
p476
F1.231086618108066e-05
sVrequire
p477
F6.100722474285378e-10
sVfarther
p478
F0.00017380133968869765
sVethical
p479
F1.0131007198249585e-10
sVabove-mentioned
p480
F7.696971157991026e-06
sVerroneous
p481
F2.2116483012914756e-05
sVmandatory
p482
F5.270588796536946e-05
sVfascinating
p483
F0.00018775462418599281
sVclarified
p484
F6.862243555986661e-06
sVperipheral
p485
F0.0003442721686752165
sVdisorientated
p486
F8.608550137027312e-06
sVblameless
p487
F0.0
sVobserved
p488
F0.0
sVopposite
p489
F5.677866987001267e-05
sVdemented
p490
F6.469096227152184e-05
sVdecided
p491
F3.663494550803135e-11
sVwell-documented
p492
F9.188691729818303e-06
sVhorrendous
p493
F0.00042790349922428733
sVcorrupt
p494
F5.1657565247708486e-05
sVsporadic
p495
F1.0104110366294976e-05
sVwell-educated
p496
F2.5426393130093866e-06
sVoptimum
p497
F0.00011864641145836007
sVbest
p498
F0.002095481433670572
sVsubject
p499
F7.680971844841563e-06
sVcruellest
p500
F1.1252131506329904e-06
sVinappropriate
p501
F9.753320749855277e-05
sVaway
p502
F7.665219755049643e-05
sVcarsick
p503
F0.0002470525591705084
sVunable
p504
F1.0231084279666273e-05
sVin-flight
p505
F1.4531892640210923e-10
sVsimplest
p506
F0.0002339736630306687
sVwhassup
p507
F0.0007363215833481769
sVoccupational
p508
F1.960864331292218e-06
sVunconscionable
p509
F0.0001707895027415166
sVco-
p510
F2.469457900732887e-06
sVhence
p511
F9.498569080953686e-06
sVlazy
p512
F1.231086618108066e-05
sVcleverer
p513
F1.4631633891228596e-05
sVdumber
p514
F3.3088338563069594e-05
sVweak
p515
F0.00032278219350067157
sVhowever
p516
F2.109111618732084e-05
sVinterdependent
p517
F4.716951501130387e-05
sVsoutheast
p518
F3.4556636959916764e-06
sVhere
p519
F0.00011232210185330946
sVindividualized
p520
F6.15543309054033e-06
sVabolished
p521
F1.5422437361515157e-05
sVreceived
p522
F1.8772131074084528e-05
sVessentially
p523
F1.5257995983318477e-05
sVirregular
p524
F5.624488529241239e-10
sVsmartest
p525
F0.0006867801637683626
sVresistant
p526
F2.3068630378084317e-05
sVill
p527
F0.0009006521392246048
sViilegal
p528
F9.260480449826489e-05
sVblack-hearted
p529
F4.270146354902902e-09
sVdisastrous
p530
F4.2162938071190286e-05
sVexport-ready
p531
F0.0
sVplanned
p532
F4.331314944042116e-05
sVlookin
p533
F4.3773264418087277e-07
sVagile
p534
F4.870250614351794e-05
sVgreater
p535
F0.0009079928563940266
sVrequests
p536
F4.113542642554184e-06
sVadapted
p537
F7.717372447562038e-06
sVasked
p538
F7.5104314262609755e-06
sVtough
p539
F0.000708868121865886
sVvain
p540
F0.0
sVhardworking
p541
F2.9478418286257364e-05
sV2nd
p542
F0.00020128128336188012
sVrepresented
p543
F1.231086618108066e-05
sVunprotected
p544
F2.2918868798723967e-07
sVwider
p545
F0.00039469557378579126
sVloaded
p546
F6.749570161516647e-06
sVbureaucratic
p547
F1.231086618108066e-05
sVmultifocal
p548
F4.498084048555811e-06
sVpoppycock
p549
F6.205054123673785e-05
sVchloe
p550
F1.2994721502675108e-05
sVthree
p551
F2.909536203979404e-10
sVtiny
p552
F0.00014464357082398564
sVquickly
p553
F1.7772962962815416e-05
sVconfident
p554
F6.568601378189051e-05
sVrecognised
p555
F5.535149576716856e-06
sVdetrimental
p556
F4.0761964285560904e-05
sVinterest
p557
F4.3903522482998364e-05
sVbasic
p558
F0.00019049247168520644
sVflexible
p559
F0.00010525099206169725
sVlovely
p560
F0.005823731495542803
sVincompetent
p561
F1.1969935968601235e-05
sVwell-deserved
p562
F6.22171534028807e-06
sVbeloved
p563
F1.231086618108066e-05
sVprosperous
p564
F5.901913964350581e-05
sVeastern
p565
F3.08571748107022e-05
sVjeopardized
p566
F2.67619026694468e-06
sVuncommon
p567
F0.00022928887516582055
sVcoherent
p568
F1.6750375214998185e-05
sVpersonally
p569
F4.7579054514796224e-06
sVimmersive
p570
F0.0
sVcomfortable
p571
F0.0007838862685709096
sVpatronizing
p572
F1.231086618108066e-05
sVgracious
p573
F4.4628441196978054e-05
sVapplied
p574
F9.847562640083287e-06
sVunpopular
p575
F4.181321036301069e-06
sVrighteous
p576
F0.0004104114721472856
sVpublicly
p577
F4.5576217726693305e-06
sVinviolable
p578
F8.462934266401459e-05
sVprofessionally
p579
F7.360819338518552e-07
sVremaining
p580
F7.517262295452868e-06
sVlesser
p581
F0.0002504190328481664
sVugly
p582
F0.001108019958149557
sVnear
p583
F5.3643934154864466e-05
sVover-the-air
p584
F2.652797226899189e-05
sVneat
p585
F0.0019331532957245626
sVlaunched
p586
F2.2109948664529424e-05
sVdelineated
p587
F1.2523763130377967e-06
sVreadyto
p588
F0.0011387801785793844
sVpreponderant
p589
F8.799509624103243e-06
sVwell-balanced
p590
F1.1762296551183516e-05
sVderisory
p591
F6.888324729310433e-06
sVit
p592
F1.9124861022043186e-05
sVill-equipped
p593
F0.0
sVil
p594
F3.407856526065029e-05
sVworld-wide
p595
F7.0154467947745565e-06
sVin
p596
F0.0002689588230315269
sVtrusted
p597
F1.3307984918293268e-05
sVgrown
p598
F2.415794622548482e-08
sVdamaged
p599
F8.99946518740907e-11
sVpatent
p600
F9.095602709763511e-06
sVbelle
p601
F0.0004870138108943143
sVrealizing
p602
F1.1275646918796863e-05
sVrecurrent
p603
F2.0311504768572005e-05
sVprincipale
p604
F0.0007010052848310448
sVlinked
p605
F5.050577162368213e-06
sVcompensable
p606
F0.0
sVcomplex
p607
F7.731808629601669e-05
sVunfortunate
p608
F0.00016451613806016006
sVseveral
p609
F3.4973686444071756e-05
sVinfeasible
p610
F3.83796774846241e-06
sVtoasted
p611
F7.898382868922474e-06
sVeuropean
p612
F1.5032724696122235e-09
sVunharmed
p613
F5.4774784258251895e-05
sVindependent
p614
F3.306453729915536e-05
sVemphasise
p615
F3.63502806604793e-06
sVsocial
p616
F0.001384205471799792
sVdiffering
p617
F1.9060337403329204e-06
sVevil
p618
F0.0003182755405405734
sVtiring
p619
F1.231086618108066e-05
sV-lncredible
p620
F0.0012311302497400084
sVjealous
p621
F7.12573983066372e-06
sVpalpable
p622
F5.834938147534134e-05
sVovert
p623
F4.7119426469101265e-05
sVcost-effectiveness
p624
F4.5125239462998136e-05
sVkid
p625
F3.364586389345029e-06
sVprescribed
p626
F1.598150688406853e-05
sVridiculus
p627
F5.404834092326755e-05
sVshortly
p628
F7.427982373545636e-05
sVimmaterial
p629
F8.352335805503601e-05
sVdre
p630
F1.179831493320866e-08
sVrescinded
p631
F4.833182362241265e-06
sVhumble
p632
F2.1781832098059025e-05
sV-so
p633
F5.066707078669022e-06
sVunsuitable
p634
F5.933419132833461e-06
sVhearty
p635
F0.0001047750958414987
sVgreatest
p636
F0.0016338930353917225
sVincapable
p637
F4.8619073553138466e-06
sVdreamy
p638
F0.00129777349973914
sVtabling
p639
F4.844768467232073e-06
sVleft
p640
F2.569458867908875e-06
sVunified
p641
F3.0400021751895067e-06
sVstringent
p642
F0.0001104053965026837
sVjust
p643
F0.0006887999701192201
sVkinky
p644
F1.231086618108066e-05
sVephemeral
p645
F3.5458292035722387e-06
sVwarmest
p646
F2.0777788823672836e-05
sVsleepy
p647
F2.462173236216132e-05
sVunfair
p648
F0.00016465948613056633
sVidentify
p649
F0.0
sVthanks
p650
F2.187440243116458e-05
sVhuman
p651
F3.812713380931748e-06
sVyes
p652
F8.302485469264989e-05
sVyet
p653
F0.0003160754711435935
sVfunctionally
p654
F2.8176966881984378e-06
sVprevious
p655
F1.960734935103478e-05
sVnote
p656
F3.1220523596996554e-06
sVmonitored
p657
F3.5337096683267285e-05
sVdocile
p658
F1.231086618108066e-05
sVdearer
p659
F8.503482205645649e-06
sVcherry
p660
F0.001723803735857223
sVold-fashioned
p661
F2.462123995705836e-05
sVideal
p662
F0.0001635434450915824
sVtopical
p663
F5.558938855484429e-06
sVsynergistic
p664
F2.14617296577343e-05
sVinnocent
p665
F2.278126073020915e-05
sVtechnological
p666
F4.32900449300336e-06
sVpitiful
p667
F2.819026565419069e-05
sVeast
p668
F4.011346005945436e-05
sVtolerable
p669
F1.6472687176334797e-05
sVtrashed
p670
F1.8304441466003915e-06
sVusable
p671
F2.056020414854977e-05
sVinsensitive
p672
F9.84757245787222e-06
sVadversarial
p673
F1.0636160409996068e-05
sVhypersensitive
p674
F2.3994039932387966e-06
sVpossible
p675
F0.000374604224361238
sVfirmer
p676
F0.00016943708689288146
sVpossibly
p677
F1.9413848309060664e-05
sVcultural
p678
F8.89956094712552e-06
sVdiscreet
p679
F1.0290786329187666e-05
sVindicative
p680
F1.231086618108066e-05
sVcopacetic
p681
F0.0001476684754841617
sVunique
p682
F0.0004522417410642765
sVunfounded
p683
F0.00012288535596102217
sVadvanced
p684
F1.9301710078130353e-06
sVapart
p685
F1.9497304400333095e-05
sVpsychological
p686
F2.432977071696346e-08
sVarticulated
p687
F5.0758309305519935e-06
sVintertwined
p688
F3.6103187116319356e-05
sVpatience
p689
F0.0
sVcooler
p690
F8.524166247091605e-05
sVnude
p691
F1.5820661177383057e-05
sVgifted
p692
F7.1637559283219e-08
sVdishonest
p693
F4.424111689744458e-05
sVunnecessary
p694
F9.685406261504288e-05
sVspecific
p695
F0.00018962519953029993
sVinformative
p696
F0.00022255886601210852
sVsparse
p697
F9.927765844848712e-05
sVarbitrary
p698
F1.231086618108066e-05
sVnotorious
p699
F3.257408687799046e-06
sVsecurity
p700
F7.128312305204477e-06
sVbeneficial
p701
F0.00029115976697128415
sVright
p702
F0.004574863681114282
sVold
p703
F1.1417283511376652e-05
sVmacabre
p704
F1.231086618108066e-05
sVeasy
p705
F0.0004970277800123629
sViittle
p706
F1.4871639023796603e-05
sVelderly
p707
F1.3053290801725275e-05
sVborn
p708
F2.428665605605885e-08
sVsure
p709
F0.00016068625505014545
sVdear
p710
F3.6204734714149364e-05
sVmultiple
p711
F3.756282623042324e-05
sVrepelling
p712
F5.1913671713287734e-11
sVpsychogenic
p713
F1.2143761666077051e-08
sVconfusing
p714
F0.00016759931622932906
sVco-funded
p715
F3.077716545270165e-06
sVfor
p716
F1.892727249279583e-05
sVricher
p717
F1.7604445158650518e-05
sVstronger
p718
F0.0008186190050503421
sVphenomenal
p719
F0.003185336916960803
sVunavoidable
p720
F3.794656634999664e-05
sVcreative
p721
F2.4620993748849744e-05
sVwitty
p722
F4.226518430307785e-05
sVprejudicial
p723
F4.03000977748954e-05
sVasking
p724
F9.897770511608885e-07
sVhonoured
p725
F6.990672679891949e-06
sVswearing
p726
F1.5820661177383057e-05
sVadorable
p727
F0.0007529035255361505
sVpalatable
p728
F1.8155003585193914e-05
sVcleanest
p729
F9.640049535562198e-06
sVbold
p730
F0.00010734352389519024
sVunwholesome
p731
F3.7310069675441927e-06
sVover-optimistic
p732
F1.49843279526435e-06
sVexecutable
p733
F1.256979820273855e-06
sVconstructive
p734
F4.2823853233539316e-05
sVsqueamish
p735
F2.061083805425505e-05
sVfar-ranging
p736
F9.806814257125532e-06
sVinvaluable
p737
F0.00019389954741868884
sVmemorable
p738
F1.231086618108066e-05
sVsuper
p739
F0.0016690430810896602
sVpermitted
p740
F4.281208018131418e-06
sVimpenetrable
p741
F7.128276664533995e-06
sVanomalous
p742
F5.558701802625906e-06
sVtrustworthy
p743
F2.44043763339225e-05
sVspeedier
p744
F6.66661194688531e-05
sVensure
p745
F7.128276664533995e-06
sVdotty
p746
F2.220448909968837e-05
sVcost-shared
p747
F2.469457900732887e-06
sVill-founded
p748
F3.4976011019819337e-10
sVvegas
p749
F1.231086618108066e-05
sVthinner
p750
F3.570204341330753e-06
sVformerly
p751
F9.868510665236722e-06
sVunconventional
p752
F9.011679225604397e-11
sVrock-solid
p753
F0.0
sVdelighted
p754
F0.0003591899122511842
sVobscene
p755
F0.0001086282731819827
sVdown
p756
F2.7825777435117307e-10
sVthankful
p757
F1.3159479779112857e-05
sVoverkill
p758
F9.053747073462886e-06
sVproblematical
p759
F2.2713647253403127e-05
sVformidable
p760
F0.00207965041451862
sVbalanced
p761
F2.4659870020740725e-05
sVhonored
p762
F2.7905048397576245e-06
sVrefined
p763
F0.00015697937758132814
sVsimillar
p764
F6.655699853938211e-05
sVfrightened
p765
F9.411317841647777e-05
sVunambiguous
p766
F9.722555037391172e-05
sVcleared
p767
F0.0
sVfrazzled
p768
F1.763935889473662e-10
sVbetter-looking
p769
F0.0002882575680195666
sVindispensable
p770
F0.00010804867202213524
sVinitial
p771
F3.864652192228873e-06
sVavailable
p772
F0.0005149571311382535
sVsovereign
p773
F1.231086618108066e-05
sVtimelier
p774
F9.336383942637685e-05
sVabsolutely
p775
F5.7302318507956515e-05
sVaccordingly
p776
F6.477960746249261e-06
sVvictorious
p777
F1.231086618108066e-05
sVcounterproductive
p778
F2.0909100626494044e-05
sVauthorized
p779
F3.516857139296445e-05
sVway
p780
F1.231086618108066e-05
sVbrainless
p781
F4.214217853693871e-05
sVlaunching
p782
F2.235076079705956e-05
sVhappy
p783
F0.00020778078442212428
sVlowest
p784
F0.00015644346445958476
sVmedium
p785
F2.2657849177516512e-05
sVoverjoyed
p786
F0.00014225026360867988
sVafresh
p787
F1.2819049762839138e-06
sVsome
p788
F1.5152750018155336e-05
sVenvious
p789
F2.3685134620673276e-05
sVback
p790
F2.3153690464919005e-06
sVheinous
p791
F5.356418224004042e-09
sVpayable
p792
F3.0448155887995752e-06
sVunderstandable
p793
F5.789898468062561e-05
sVdead
p794
F0.00012218266242709254
sVroisin
p795
F1.2215905239196581e-05
sVsustained
p796
F1.3971376563061178e-05
sVremoved
p797
F6.86481081414837e-10
sVtrue
p798
F0.000323418221578858
sVunderfunded
p799
F0.00019140721269090262
sVabsent
p800
F9.988315274559416e-05
sVhigh-quality
p801
F0.0003376942063116967
sVbraver
p802
F1.9120921453576873e-05
sVurgent
p803
F0.00010013241437492348
sVinside
p804
F1.1590275020294741e-05
sVmaximum
p805
F3.83796774846241e-06
sVruined
p806
F4.1158374026656065e-06
sVtouchy
p807
F2.6970889456824587e-05
sVinsincere
p808
F3.2713338983362897e-06
sVunanimous
p809
F8.956013495845702e-05
sVheartening
p810
F2.1954937191945653e-06
sVemotional
p811
F0.00013595007358810333
sVhorrifying
p812
F0.0002650966035518935
sVpanicky
p813
F0.0001637406719907882
sVjuvenile
p814
F0.0
sVproud
p815
F4.66167658486101e-05
sVhotter
p816
F4.141195207781473e-05
sVclassic
p817
F0.0075122747459986485
sVsinful
p818
F0.00011288531646806746
sVnovel
p819
F4.059067819370575e-06
sVwretched
p820
F7.804906128379771e-06
sVproven
p821
F4.6632774300740336e-05
sVsale
p822
F4.498039068165148e-11
sVacclaimed
p823
F6.701935570668575e-06
sVbelievable
p824
F4.294982361720376e-05
sVmediocre
p825
F1.5209459227845093e-05
sVannoying
p826
F0.0001226227205524054
sVvice-chairperson
p827
F1.026002621423255e-05
sVinjurious
p828
F5.600770163994825e-06
sVshit
p829
F3.194925733175164e-05
sVphysical
p830
F0.0006986284963657615
sVdiscriminate
p831
F9.84757245787222e-06
sVfaithful
p832
F7.379062244467743e-06
sVdying
p833
F8.689455270813447e-06
sVeerie
p834
F8.73012675595778e-05
sVauthoritative
p835
F2.3574382370421243e-05
sVstir-crazy
p836
F0.00017620917607149992
sVgenerally
p837
F1.9506147324212535e-05
sVhanded
p838
F1.231086618108066e-05
sVreality
p839
F2.481473978367747e-05
sVanswerable
p840
F5.879606319639441e-06
sVgeographically
p841
F1.0303794443087032e-05
sVinterested
p842
F6.623854472970816e-05
sVstagnant
p843
F6.705718645740811e-06
sVcomplicit
p844
F2.006352448555413e-06
sVambitious
p845
F5.05323884635476e-06
sVmisleading
p846
F1.6229919419501348e-05
sVshort-term
p847
F2.658665234897338e-06
sVsuperfluous
p848
F9.604874115258521e-05
sVroll
p849
F0.0005591671185677565
sVunbalanced
p850
F8.816766068518801e-06
sVtasteful
p851
F0.0
sVsavage
p852
F1.5690039681995964e-05
sVformally
p853
F1.6495985023758079e-06
sVsnarky
p854
F0.0
sVpreceding
p855
F2.2771287405708613e-05
sVwelcome
p856
F0.00015042437073209462
sVconvincing
p857
F1.3517009510446237e-06
sVpolite
p858
F2.556948587907533e-09
sVunwell
p859
F3.407883788535549e-05
sVinvested
p860
F2.0903435336979897e-07
sVvariable
p861
F0.0
sVdense
p862
F1.231086618108066e-05
sVhurt
p863
F0.00011426703664142883
sVdied
p864
F1.6645431065662492e-05
sVyounger
p865
F2.523449068032258e-05
sVallright
p866
F0.0004911122939491332
sVopen-minded
p867
F3.053741156663179e-05
sVdaily
p868
F1.231086618108066e-05
sVwell-designed
p869
F1.422884628781872e-06
sVloyal
p870
F1.605733875573142e-05
sVgood-natured
p871
F0.00014732015384640105
sVwell-filled
p872
F1.0120934700915321e-06
sVtime
p873
F3.407311940563912e-05
sVserious
p874
F0.0008068323086483579
sVdebate
p875
F6.782480080748173e-06
sVrestored
p876
F1.231086618108066e-05
sVoverdue
p877
F2.8660404521264833e-05
sVionely
p878
F3.759257121434618e-05
sVrehearse
p879
F2.727506922764558e-05
sVmanaged
p880
F5.040467153984195e-06
sVregrettably
p881
F5.018147338874911e-06
sVremarkable
p882
F0.005800696507757927
sVglobal
p883
F2.7734320966526648e-05
sVtask-oriented
p884
F2.3477501677556325e-06
sVmild
p885
F0.0003099193832564199
sVgrateful
p886
F0.0001533050482065683
sVspaced
p887
F0.0
sVabundant
p888
F6.857310929616593e-05
sVtargeted
p889
F5.222894730686311e-06
sVtenable
p890
F6.291455194456767e-05
sVseasick
p891
F0.00028113150069665975
sVcertainly
p892
F2.2891706381709603e-05
sVuneven
p893
F7.907830447199263e-05
sVyummy
p894
F0.0006554563382951383
sVeverything
p895
F5.008331003582246e-05
sVdisgusting
p896
F0.00035417965842675885
sVenvironment
p897
F3.085780228864193e-05
sVfinally
p898
F1.1354693650272598e-05
sVunpleasant
p899
F0.00014151702982683994
sVpermanently
p900
F2.7771858475600665e-06
sVknackered
p901
F1.4101094649916959e-05
sVanalogous
p902
F2.4868093630345217e-05
sVoverwrought
p903
F2.774713782196542e-05
sVtenacious
p904
F1.4546812662294644e-05
sVshoot
p905
F0.00026896256954171433
sVpursuant
p906
F1.7460520307704308e-06
sVsloppy
p907
F2.2454786426203874e-05
sVuntenable
p908
F9.89324748961635e-05
sVsappy
p909
F9.442273305671299e-05
sVcentralized
p910
F1.545024077395434e-05
sVanonymous
p911
F4.20115577832079e-05
sVadvised
p912
F6.213427288037519e-06
sVlocked
p913
F5.293648624707413e-06
sVfullest
p914
F2.9571251707161294e-05
sVfifty
p915
F0.0
sVexact
p916
F8.360249049711211e-05
sVfeeble
p917
F7.734303858028993e-05
sVminute
p918
F4.2598348189701776e-05
sVcool
p919
F0.003159978747665602
sVdim
p920
F3.007512472665599e-06
sVflammable
p921
F1.231086618108066e-05
sVimpressive
p922
F0.001935703701209047
sVlevel
p923
F3.0292336991908876e-05
sV-good
p924
F2.3661239802849117e-05
sVregistered
p925
F9.258300499118506e-10
sVcloudy
p926
F1.231086618108066e-05
sVleave
p927
F0.002458481353111336
sVdiscrete
p928
F1.0879090329856878e-05
sVwarmth
p929
F4.048034919698146e-05
sVquick
p930
F6.805755790929113e-05
sVround
p931
F1.7173690814040743e-05
sVunaware
p932
F5.616691984962534e-06
sVdistasteful
p933
F4.0532213841114125e-05
sVbrave
p934
F0.000605101202619807
sVslower
p935
F9.472742845528441e-05
sVill-conceived
p936
F3.763026961903617e-07
sVinsignificant
p937
F0.00039342165879962686
sVobsolete
p938
F8.262014005537944e-06
sVcomforting
p939
F0.00016712292783949614
sVravenous
p940
F7.586582034717843e-06
sVhelpless
p941
F0.00012299657580385387
sVrough
p942
F0.00016999008794930104
sVirritated
p943
F5.378185611283239e-05
sVstressful
p944
F0.0001315704710156161
sVunder-age
p945
F8.728989403369272e-06
sVcelebrated
p946
F2.1231964719426296e-05
sVrationalized
p947
F2.7418187840037362e-05
sVuniform
p948
F3.130049757122165e-05
sVcurrent
p949
F8.931894256652631e-05
sVsuspect
p950
F3.879249837891983e-05
sVlong-standing
p951
F4.631480004871003e-05
sVtime-consuming
p952
F0.000102459735361269
sVunrestricted
p953
F4.3163161640078025e-05
sVcommensurate
p954
F1.507564001263267e-05
sVfreaky
p955
F0.00021590718315488974
sVparadoxical
p956
F2.5575064182145802e-05
sVhairy
p957
F4.544439627414471e-05
sVunsure
p958
F6.2189147118387544e-06
sVtransparency
p959
F1.6828626294580578e-05
sVefficacious
p960
F3.7023749245603203e-05
sVassertive
p961
F1.2014867781742152e-05
sVfrench
p962
F3.6844939131634006e-05
sVunderstanding
p963
F9.251720051010465e-06
sVunanimously
p964
F8.336057298861778e-05
sVcrippled
p965
F1.624600338188786e-05
sValone
p966
F8.16269497491341e-05
sVdisappeared
p967
F2.2741882767841967e-06
sVenvironment-friendly
p968
F0.00016761530044051684
sVmomentous
p969
F4.955409478708239e-05
sVwait
p970
F5.388277476810341e-06
sVboy
p971
F0.0
sVunidentified
p972
F1.5228610622656797e-05
sVnoticeable
p973
F0.0011358089104184415
sVbrilliant
p974
F0.02326502198272515
sVspontaneous
p975
F5.0082798061343544e-06
sVfunded
p976
F4.553838313402016e-06
sVglobalization
p977
F7.0154467947745565e-06
sVburdensome
p978
F0.0001050904092547457
sVineffective
p979
F5.2433681422804865e-05
sVusually
p980
F9.271909740379884e-06
sVpriceless
p981
F0.0014244882001287315
sVweird
p982
F0.000733225290131978
sVmuscovite
p983
F1.9059896345876578e-06
sVall-out
p984
F1.2236990868093215e-05
sVgenuinely
p985
F7.9584846913878e-06
sVbreathtaking
p986
F0.0019810148861228605
sVinsolent
p987
F1.5820661177383057e-05
sVconfidentiality
p988
F3.5414096966479766e-07
sVextra
p989
F4.781861536335499e-05
sVproblematic
p990
F0.00016209116875519388
sVmerely
p991
F7.530456515005506e-05
sVhiv-positive
p992
F9.682626765304126e-06
sVmarked
p993
F8.99946518740907e-11
sVspecified
p994
F8.100255633917846e-05
sVmarvelous
p995
F0.004487118969471295
sVflexibility
p996
F8.820167593572958e-06
sVself-sufficient
p997
F2.16571201923368e-05
sV1st
p998
F2.909565299341432e-05
sVatrocious
p999
F0.00011709721653639847
sVrarely
p1000
F5.600563012202279e-05
sVremediated
p1001
F1.231086618108066e-05
sVultra-hazardous
p1002
F3.435953263642784e-06
sVsympathetic
p1003
F1.9893025417621645e-05
sVvivid
p1004
F3.487143886943331e-05
sVworking
p1005
F3.343781595492114e-10
sVhomesick
p1006
F1.231086618108066e-05
sVpositive
p1007
F0.0006301344649326272
sVangry
p1008
F0.00013809076805665577
sVby
p1009
F8.736757139440092e-05
sVlive
p1010
F2.9858945812866697e-05
sVopposed
p1011
F5.5208578129711536e-06
sVcuter
p1012
F0.0001967631643896688
sVtheoretical
p1013
F1.2063688723239104e-05
sVtoday
p1014
F2.0324095812146198e-05
sVwicked
p1015
F0.002749874191435472
sVunwarranted
p1016
F8.224538259837123e-05
sVacceptable
p1017
F9.590837117080225e-05
sVapparent
p1018
F0.0002565645018123373
sVwell-lit
p1019
F1.231086618108066e-05
sVstate-funded
p1020
F5.974451671578354e-07
sVodious
p1021
F8.031744957708863e-05
sVvisual
p1022
F1.0683716980015756e-07
sVrigid
p1023
F2.589234880633288e-05
sVfirst-hand
p1024
F3.655950950931221e-06
sVeasiest
p1025
F0.000247829523001188
sVmid-sized
p1026
F5.7713303115971214e-06
sVvalued
p1027
F1.4502662543188116e-09
sVanything
p1028
F0.0006448888833658691
sVpretend
p1029
F6.114425932033515e-09
sVmodified
p1030
F2.105118342846046e-09
sVlongitude
p1031
F1.2026928089339098e-10
sVexhilarating
p1032
F0.00016387501387287186
sVinstable
p1033
F1.3010524669594814e-05
sVhardest
p1034
F0.0001994187167190679
sVsour
p1035
F6.7070189741671e-06
sVamiss
p1036
F3.775805956917359e-05
sVgrowing
p1037
F0.0001277821177970663
sVbatty
p1038
F1.9120825851359734e-05
sVdeceased
p1039
F3.072852388019608e-05
sVnearest
p1040
F0.0
sVdedicated
p1041
F1.231086618108066e-05
sVgrouchy
p1042
F1.6414496068478805e-05
sVsmall-time
p1043
F5.212089245969923e-06
sVgarbled
p1044
F1.231086618108066e-05
sVexpanding
p1045
F4.068915801962278e-05
sVawesome
p1046
F0.02233417838380077
sVconfused
p1047
F5.462368585375699e-05
sVtopic
p1048
F3.0064309981411734e-06
sVheard
p1049
F5.21362106921653e-05
sVbattered
p1050
F0.0
sVdistinguishable
p1051
F8.800512502854854e-06
sVcraze
p1052
F0.00016740614911304007
sVill-treated
p1053
F2.2164001802290606e-05
sVproductive
p1054
F9.243358168015756e-05
sVbankrupt
p1055
F2.2739871986860865e-05
sVdiscussion
p1056
F2.946254696488254e-06
sVdelirious
p1057
F0.00040011571176087885
sVinnumerable
p1058
F1.7914954124412112e-05
sVvital
p1059
F0.00035019143008819707
sVcardinal
p1060
F6.118535162949624e-05
sVactual
p1061
F7.958537747069e-06
sVfourth
p1062
F0.00011657116088040154
sVsignificant
p1063
F0.0012868188875131952
sVoptimal
p1064
F0.00017526467511593774
sVallowable
p1065
F4.281208018131418e-06
sVpathway
p1066
F1.231086618108066e-05
sVunbelievable
p1067
F0.0022007859253816283
sVparamount
p1068
F0.00030002727648951766
sVirrational
p1069
F3.1377661772964457e-06
sVinformation
p1070
F5.048538646932513e-11
sVimpartial
p1071
F1.0158871059875057e-06
sVbroadest
p1072
F0.00022094493484444048
sVpraiseworthy
p1073
F5.1770247331870426e-05
sVprimordial
p1074
F4.6506163937816486e-05
sVdesigned
p1075
F4.726548435650998e-06
sVimproving
p1076
F1.516435793316457e-05
sVdrastic
p1077
F4.767287953642842e-05
sVsuck
p1078
F2.3278815368099044e-05
sVdestructive
p1079
F0.0
sVguys
p1080
F6.275804149861254e-05
sVnon-toxic
p1081
F1.297837469841698e-07
sVegotistical
p1082
F2.1362144668949735e-06
sVdisagreeable
p1083
F3.817070275136546e-05
sVcosteffective
p1084
F2.2987567116773846e-05
sVnatural
p1085
F6.184499174646802e-05
sVliquid
p1086
F0.0
sVconscious
p1087
F3.779723431286604e-05
sVlong-range
p1088
F4.814663915099373e-06
sVslightly
p1089
F4.456364471504476e-05
sVexplicit
p1090
F2.782420950541044e-05
sVnosey
p1091
F4.1170527028902386e-05
sVfluent
p1092
F9.492528205719931e-05
sVrather
p1093
F3.915961980425188e-05
sVthorny
p1094
F3.5885575049260512e-06
sVso
p1095
F0.00034945716042565563
sVafrican
p1096
F5.710850811914725e-08
sVtall
p1097
F0.000781553177669786
sVlabour-intensive
p1098
F2.1483393646349887e-06
sVdrunken
p1099
F1.231086618108066e-05
sVcute
p1100
F0.0010327200126167208
sVinnocuous
p1101
F7.433799405118226e-05
sVnoteworthy
p1102
F0.0007681491764013355
sVshaky
p1103
F0.00012016168348728763
sVmainly
p1104
F8.799465627655068e-06
sVunacceptable
p1105
F0.00012155983775251149
sVcharacteristic
p1106
F1.7797864649094784e-05
sVcourse
p1107
F3.690337801260647e-05
sVcold
p1108
F0.0001308217495700808
sVstill
p1109
F0.0002133064956693621
sVlovelier
p1110
F0.00031927461739836456
sVsacrosanct
p1111
F0.0
sVconstituted
p1112
F1.0834403256006665e-10
sVthank
p1113
F1.6856255092289668e-05
sVlackluster
p1114
F2.0442140309180123e-06
sVinteresting
p1115
F0.0009641957569896932
sVamazing
p1116
F0.004097202418605057
sVunprejudiced
p1117
F0.0
sVbad-looking
p1118
F0.00012818580426971553
sVconsequential
p1119
F6.896842400875349e-05
sVcoordinated
p1120
F1.2825521896112135e-05
sVextirpated
p1121
F2.1914332414073733e-07
sVmain
p1122
F0.00021526310552339757
sVhappened
p1123
F3.837942162607347e-06
sVnouveau
p1124
F1.8573898710808683e-06
sVnon
p1125
F5.048589132318962e-06
sVlonely
p1126
F8.138284697079229e-05
sVfuller
p1127
F3.262750723964304e-05
sVdisparate
p1128
F6.500156953886724e-06
sVsmarter
p1129
F0.000193485407285086
sVexecutory
p1130
F2.9711170595459214e-05
sVsooner
p1131
F6.520247114488495e-05
sVmoron
p1132
F4.067964466337992e-06
sVqualified
p1133
F2.021784475240422e-05
sVwell-suited
p1134
F5.9561501533005624e-08
sVunimpressive
p1135
F0.0
sVwealthy
p1136
F8.692361724956124e-06
sVthus
p1137
F4.810151592074035e-06
sVnow
p1138
F0.00033727648007807204
sVprovision
p1139
F5.242086487502564e-06
sVordinary
p1140
F0.0002882728353732354
sVmatched
p1141
F1.0610588885890462e-05
sVterm
p1142
F2.125720177622121e-05
sVfirst-rate
p1143
F0.004143754330169621
sVbetter-quality
p1144
F1.901021306523027e-06
sVrespectable
p1145
F3.9117751607484114e-05
sVscarcer
p1146
F5.203976260033583e-05
sVtruthful
p1147
F5.552621959838383e-05
sVunexceptable
p1148
F1.1425678254230474e-05
sVrealistic
p1149
F3.119912358251052e-05
sVwealthier
p1150
F1.2555840097870089e-05
sVrock
p1151
F0.0002688015453128893
sVentirely
p1152
F7.88581483797209e-05
sVweighted
p1153
F0.0
sVunproductive
p1154
F7.291871980232072e-06
sVunachievable
p1155
F7.92892489722851e-06
sVchallenged
p1156
F4.072351599401972e-06
sVkane
p1157
F1.231086618108066e-05
sVabnormal
p1158
F3.664850516464236e-05
sVyeah
p1159
F0.00010414775008870257
sVimpolite
p1160
F0.0
sVchallenges
p1161
F3.5885754473547126e-06
sVyear
p1162
F2.4152403678059873e-08
sVa-okay
p1163
F0.00021804051989076284
sVubiquitous
p1164
F0.00012331580827912048
sVgirl
p1165
F3.949477984485555e-06
sVworried
p1166
F9.37811605282099e-05
sVsmall-scale
p1167
F1.1864191478184293e-05
sVgiddy
p1168
F6.522604206839873e-05
sVliving
p1169
F3.209142505031378e-05
sVdrier
p1170
F9.847575730494765e-06
sVopened
p1171
F2.2102296105264795e-05
sV3rd
p1172
F8.799465627655068e-06
sVfurthermore
p1173
F5.048629520466565e-06
sVenvironmentally-friendly
p1174
F0.0003871848616694508
sVlooking
p1175
F0.00011026274100133411
sVseriously
p1176
F0.0005026998202809869
sVnominal
p1177
F1.6446335156174527e-05
sVimperative
p1178
F0.0002456508923316349
sVemerged
p1179
F1.7200142052892524e-11
sVviable
p1180
F0.00019433237723563522
sVtechnology-neutral
p1181
F0.0
sVadvantaged
p1182
F5.308058707968798e-10
sVsonny
p1183
F2.6586519419034992e-06
sVdisrespect
p1184
F1.1069669076653467e-05
sVcomplicated
p1185
F0.0002035809848852597
sVemblematic
p1186
F1.231086618108066e-05
sVwell-controlled
p1187
F1.878660397866516e-05
sVracked
p1188
F0.0
sVominous
p1189
F1.0319122593022248e-05
sVmarine
p1190
F5.048589132318962e-06
sVinevitable
p1191
F0.0001649508658455309
sVrepayable
p1192
F7.322798498892333e-06
sVirresponsible
p1193
F0.00022495140678080412
sVgood-iooking
p1194
F0.0007149801295130787
sVwrong
p1195
F0.0004964547996779561
sVhonest
p1196
F0.00018174779457852955
sVbest-known
p1197
F3.257408687799046e-06
sVindustrialised
p1198
F0.0
sVundesirable
p1199
F4.357665905201044e-05
sVbothersome
p1200
F1.4431860406767197e-05
sVmisused
p1201
F5.558738860020894e-06
sVfrequent
p1202
F0.00013144716621745883
sVfirst
p1203
F0.00020512547431031583
sVblind
p1204
F1.659420780820203e-05
sVconstantly
p1205
F9.273525196291878e-06
sVstriking
p1206
F0.0008340272323753432
sVincongruous
p1207
F4.0887129322142584e-05
sVsymbolic
p1208
F1.231086618108066e-05
sVyourself
p1209
F1.2599506688833027e-05
sVbetter-iooking
p1210
F0.0010793486308030233
sVtemporarily
p1211
F0.0
sVsimplified
p1212
F0.0001407996771300717
sVlong
p1213
F0.00060291462134756
sVdirectly
p1214
F8.08611874310925e-06
sVimpossible
p1215
F0.00013251061846830976
sVunattainable
p1216
F3.83796774846241e-06
sVopen
p1217
F0.00021068425462042055
sVcheesy
p1218
F5.8067833280264713e-05
sVgiven
p1219
F5.121769034765521e-05
sVnecessarily
p1220
F7.162766012459807e-05
sVchecked
p1221
F8.107265498309406e-10
sVsilent
p1222
F7.644588721977832e-05
sVcategorical
p1223
F9.682626765304126e-06
sVstructured
p1224
F1.6151246644228887e-05
sVcallous
p1225
F2.2226386782170792e-05
sVcompulsory
p1226
F2.246284076782587e-05
sVpsychotic
p1227
F0.00034232310378060125
sVcost-effectively
p1228
F6.994642155564216e-05
sVcrystal-clear
p1229
F1.5996643973074268e-05
sVtragic
p1230
F0.00020978338347263508
sVterrifying
p1231
F0.00028070795866252035
sVcost-effective
p1232
F0.0001942618683471431
sVwhite
p1233
F1.71570698359483e-05
sVspeaking
p1234
F4.051792609072103e-05
sVokey-dokey
p1235
F1.540740280795682e-05
sVscience-based
p1236
F3.791852916596223e-05
sVinefficient
p1237
F1.9157350342176656e-05
sVmostly
p1238
F4.247150886636424e-05
sVthat
p1239
F0.00012632621935378496
sVfreer
p1240
F1.82881150160348e-05
sVcontinuous
p1241
F3.856336517875779e-05
sVhuh
p1242
F2.8578098678652682e-05
sVreleased
p1243
F2.2255871014651473e-05
sVridiculous
p1244
F0.00025361045354731064
sVlengthier
p1245
F9.806814257125532e-06
sVdistributed
p1246
F1.3153758477965728e-05
sVoccurring
p1247
F4.01151472183905e-05
sVthan
p1248
F0.00014161199759996456
sVspecify
p1249
F0.0
sV10
p1250
F0.0
sVrugged
p1251
F0.00010735453269789883
sVunfortunately
p1252
F0.0
sVself-employed
p1253
F1.5113585753722156e-05
sVdepressed
p1254
F2.692535487450276e-05
sVscrumptious
p1255
F0.00027824479313841505
sVgotta
p1256
F0.0009420771958059824
sVprotected
p1257
F6.856219085076956e-07
sVall-inclusive
p1258
F2.5690329270048855e-05
sVaesthetic
p1259
F6.921258592774476e-11
sVaccessed
p1260
F3.6638724279575046e-05
sVgigantic
p1261
F0.0006346266115916406
sVmeticulous
p1262
F1.5320818265835287e-05
sVproactive
p1263
F8.605727962163912e-05
sVquestionable
p1264
F0.00014031747655730918
sVtroublesome
p1265
F4.725841668440132e-05
sVcontentious
p1266
F2.590308740916042e-05
sVarmored
p1267
F2.462173236216132e-05
sVnicer
p1268
F0.0015763335770905002
sVsal
p1269
F1.231086618108066e-05
sVlow
p1270
F0.0001439284148155034
sVpro
p1271
F7.360819338518552e-07
sVpremier
p1272
F9.689373193582508e-06
sVturned
p1273
F1.9059896345876578e-06
sVsad
p1274
F7.923547833550724e-05
sVprestigious
p1275
F1.4774169722078022e-05
sVsay
p1276
F1.6856255092289668e-05
sVduty-bound
p1277
F0.0
sVinsatiable
p1278
F1.063220019477425e-05
sVoccupied
p1279
F6.934227848876471e-06
sVany
p1280
F2.3509308454309012e-05
sVdeserted
p1281
F3.947802878358816e-10
sVsquat
p1282
F7.038678349249082e-05
sVabysmal
p1283
F8.036403143155308e-06
sVcheerful
p1284
F0.0
sVefficient
p1285
F0.0004940483318202302
sVshocked
p1286
F8.502993229744614e-05
sVterrific
p1287
F0.025753893046231144
sVendangered
p1288
F3.838896381813498e-05
sVfiine
p1289
F9.702723171194746e-05
sVpotential
p1290
F1.1920541636443895e-05
sVobjective
p1291
F1.4774159904289079e-05
sVresponsibility
p1292
F5.879567626163268e-06
sVpersonalized
p1293
F6.15543309054033e-06
sVblunt
p1294
F3.8887238205321843e-05
sVswitching
p1295
F0.0
sVflattered
p1296
F1.231086618108066e-05
sVbegin
p1297
F0.0008384522261148686
sVcommonplace
p1298
F0.00017617227511036726
sVprick
p1299
F4.067944127024159e-06
sVnormal
p1300
F8.612008842153715e-05
sVclearer
p1301
F0.00030764081638698896
sVpaid
p1302
F1.740998399924985e-05
sVn'tunderstand
p1303
F3.5903513929959128e-06
sVimportantly
p1304
F1.9293761580850202e-05
sVpurty
p1305
F0.0008189414237463362
sVamerica
p1306
F6.891124740935669e-06
sVcreditable
p1307
F1.2541573632831578e-05
sVconspicuous
p1308
F0.0001921884593999096
sVforever
p1309
F1.231086618108066e-05
sVviewable
p1310
F8.043122433302148e-06
sVespecially
p1311
F0.00011838025253429476
sVsurprising
p1312
F0.0005490862211722487
sVconsidered
p1313
F7.027994742885662e-06
sVinternational
p1314
F0.0
sVaverage
p1315
F1.6495985023758079e-06
sVlater
p1316
F5.305860367504659e-05
sVsteady
p1317
F0.00012150101896400356
sVhungry
p1318
F6.549085021019909e-05
sVawareness-raising
p1319
F5.616691984962534e-06
sVsubsequent
p1320
F1.4624948243784777e-07
sVjittery
p1321
F2.774713782196542e-05
sVprofessional
p1322
F2.1811290661215005e-05
sVsenior
p1323
F0.00023243853132908987
sVgender-neutral
p1324
F2.291443822944034e-07
sVtypically
p1325
F1.2710487445405463e-05
sVprecise
p1326
F0.0002264503481659277
sVmonstrous
p1327
F2.0072877857304654e-05
sVshot
p1328
F0.0
sVmuchfor
p1329
F1.0814065513446913e-05
sVcheap
p1330
F9.470565135991198e-05
sVcontemporary
p1331
F8.653475507076838e-07
sVright-handed
p1332
F1.231086618108066e-05
sVbright
p1333
F0.002161820851369376
sVheart-warming
p1334
F9.93347468551365e-05
sVinconsistent
p1335
F0.00010546226845677665
sVsouthwestern
p1336
F1.548271205461162e-05
sVscarce
p1337
F0.0006315984610301757
sVaggressive
p1338
F4.447175915135815e-05
sVmultifaceted
p1339
F1.8212960845599914e-05
sVslow
p1340
F5.9234909084180054e-05
sVpunchy
p1341
F4.067944127024159e-06
sVenough
p1342
F0.0007187558212511541
sVself-supporting
p1343
F8.125267018400356e-05
sVonly
p1344
F5.9292188544419377e-05
sVgoing
p1345
F0.0006114487076292811
sVblack
p1346
F7.652986214874565e-06
sVequipped
p1347
F2.383219729111478e-10
sVuppermost
p1348
F8.603919709359787e-05
sVdemand-driven
p1349
F0.0
sVdispute
p1350
F1.1098961409248115e-05
sVgroovy
p1351
F0.00014604310181706302
sVdissimilar
p1352
F3.6548847845797485e-05
sVget
p1353
F6.114425932033515e-09
sVroutine
p1354
F3.764775537511063e-05
sVfreezing
p1355
F7.572291023249859e-05
sVtruly
p1356
F7.9584846913878e-06
sVsimplistic
p1357
F0.0007623076517445297
sVunimportant
p1358
F5.292728434568107e-05
sVinfallible
p1359
F0.00010005105568521835
sVetcetera
p1360
F0.0
sVlighter
p1361
F0.00026582261884574383
sVhumbled
p1362
F1.1490558593033021e-05
sVthought-out
p1363
F5.52698829408997e-07
sVunethical
p1364
F1.2786333163817641e-05
sVclearest
p1365
F0.00012794870090756518
sVsecondary
p1366
F0.0004934825260328213
sVprime
p1367
F8.728989403369272e-06
sVdisabled
p1368
F5.45212790687639e-05
sVundemanding
p1369
F4.011706008637031e-06
sViovely
p1370
F0.00046324280954558714
sVseldom
p1371
F3.0421392234267363e-05
sVtopnotch
p1372
F4.039390159018805e-09
sVail
p1373
F2.4955034272204856e-06
sVnaked
p1374
F1.231086618108066e-05
sVstupid
p1375
F0.0002455398808644706
sVliable
p1376
F2.8651888820237578e-05
sVunappy
p1377
F2.3899248817065187e-05
sVworrying
p1378
F4.509640563697297e-05
sVstaff
p1379
F3.3470834634447394e-05
sVdeclared
p1380
F1.042681121088331e-10
sVphysically
p1381
F9.901244518223279e-05
sVviolated
p1382
F0.0
sVpitch-black
p1383
F1.5305819373086026e-05
sVuneconomical
p1384
F3.010577059402019e-05
sVblurred
p1385
F9.917431486474506e-06
sVrelative
p1386
F0.00014362837967208243
sVelected
p1387
F1.0380795577332084e-05
sVactively
p1388
F2.288837787334358e-05
sVasleep
p1389
F6.15543309054033e-06
sVculpable
p1390
F1.0330545416193607e-06
sVunaltered
p1391
F2.4794056223607313e-05
sVaroused
p1392
F2.9330554534278657e-05
sVunderpaid
p1393
F4.186143631296712e-06
sVencouraged
p1394
F0.0
sVharmonised
p1395
F1.231086618108066e-05
sVsatisfying
p1396
F1.2562603213942485e-05
sVvoluntary
p1397
F1.4774159904289079e-05
sVsteadfast
p1398
F4.770670820571301e-05
sVlimber
p1399
F8.820167593572958e-06
sVunabated
p1400
F0.0003315799572187184
sValarming
p1401
F0.0003120557095790312
sVfascinated
p1402
F1.231086618108066e-05
sVdefinite
p1403
F0.00010496671244215918
sVteeny
p1404
F8.499582658636812e-06
sVnorth-west
p1405
F1.4362664918371262e-05
sVoutside
p1406
F0.00021266174584792414
sVlaborious
p1407
F2.2528736174070717e-05
sVbetween
p1408
F1.695388381551027e-10
sVsimplifying
p1409
F0.0
sVjustified
p1410
F0.00010598984918678092
sVaffordable
p1411
F7.964403165109154e-05
sVoverly-high
p1412
F7.898382868922474e-06
sVlast-minute
p1413
F9.165939247091535e-06
sVuseful
p1414
F0.000470169271364852
sVfearless
p1415
F7.554711649024687e-05
sVself-serving
p1416
F1.4527849130896163e-05
sVgood-looking
p1417
F0.0007022946872461154
sVs-sorry
p1418
F8.316913087210053e-05
sVfree-standing
p1419
F7.434491924670665e-06
sVall-embracing
p1420
F2.191366341075976e-05
sVwell-protected
p1421
F0.0
sVcome
p1422
F6.114425932033515e-09
sVgrieved
p1423
F5.211203406831103e-05
sVconcentrated
p1424
F6.333113131589893e-06
sVdiscernible
p1425
F1.687697115100457e-05
sVtalented
p1426
F1.1644021307710236e-07
sVpre-established
p1427
F1.2819049762839138e-06
sVmany
p1428
F0.0004207933681699082
sVquiet
p1429
F0.00014369900259376934
sVuneconomic
p1430
F3.010571395515322e-05
sVunforeseen
p1431
F1.9384755830038507e-05
sVsketchy
p1432
F7.613825146028979e-05
sVtraded
p1433
F1.3003648401835584e-05
sVstupide
p1434
F4.067978994669772e-06
sVnearby
p1435
F2.3077065336024273e-05
sVyearly
p1436
F0.0
sVmadness
p1437
F2.220448909968837e-05
sVafterwards
p1438
F3.374237534905594e-06
sVterse
p1439
F2.3828084592674665e-05
sVeffective
p1440
F0.0011573073792941115
sVinexplicable
p1441
F6.814267918856619e-06
sV15-year-old
p1442
F5.701499059243802e-07
sVmaintained
p1443
F2.7268336390945176e-05
sVstrengthening
p1444
F0.00013108971405949424
sVadditionally
p1445
F5.048589132318962e-06
sVliberal
p1446
F5.1971218816479755e-05
sVbizarre
p1447
F0.00012506417339544498
sVactually
p1448
F7.162585453073028e-05
sVlaudable
p1449
F0.0001503516647307405
sVbutthead
p1450
F4.067964466337992e-06
sVsensible
p1451
F0.00044766861416583724
sVunusual
p1452
F0.00035636970545104176
sVcapable
p1453
F0.000111440810821752
sVwest
p1454
F1.8849795824612614e-10
sVinclusive
p1455
F0.00016491158076837155
sVinformed
p1456
F2.766382208707853e-05
sValmighty
p1457
F1.7692935332609876e-05
sVdependable
p1458
F6.563993991123486e-06
sVeco-friendly
p1459
F9.497912318897017e-05
sVpeaceful
p1460
F0.00011700053559732005
sVcompensatory
p1461
F1.256979820273855e-06
sVbrisk
p1462
F0.0
sVbullshit
p1463
F0.00011616580116136205
sVmarty
p1464
F1.2216073800061895e-05
sVeducated
p1465
F1.6173438630221875e-05
sVfucked-up
p1466
F9.366123561085237e-05
sVformed
p1467
F4.673902214299928e-06
sVreaching
p1468
F6.325988454690928e-10
sVth-that
p1469
F5.962880571710776e-09
sVdramatic
p1470
F0.0013097848318486228
sVsuspected
p1471
F2.721552598909497e-05
sVextant
p1472
F1.285688974655847e-05
sVsticky
p1473
F3.912370983912934e-09
sVirrelevant
p1474
F7.811163706918127e-05
sVformer
p1475
F1.231086618108066e-05
sVcountless
p1476
F1.7914954124412112e-05
sVcase
p1477
F4.270146354902902e-09
sVspecialised
p1478
F1.6720994591930173e-05
sVmyself
p1479
F5.018147338874911e-06
sVdeveloping
p1480
F1.470390138217225e-11
sVthese
p1481
F1.042631013562726e-05
sVwealthiest
p1482
F2.3356761225021083e-06
sVsingle
p1483
F0.00014521149398002408
sVpremature
p1484
F5.073804032015916e-05
sVfiercer
p1485
F5.909205911315849e-06
sVhandicapped
p1486
F2.2093539152974717e-05
sVdorky
p1487
F0.00013137525736729762
sVmightier
p1488
F2.2933402448980837e-05
sVslippery
p1489
F0.0005685219076562067
sVpromising
p1490
F1.3953228415220435e-05
sVcancelled
p1491
F1.2047686417496824e-05
sViil
p1492
F3.4078735650068675e-05
sVimplacable
p1493
F4.646224130570802e-06
sVunsatisfactory
p1494
F0.00014600567832231525
sVeventually
p1495
F9.640049535562198e-06
sVsincere
p1496
F4.1073530770411446e-05
sVfuzzy
p1497
F4.4463343846633144e-05
sVengaged
p1498
F2.2588807788965293e-06
sVdubious
p1499
F1.2119172206683623e-05
sVsleeping
p1500
F6.15543309054033e-06
sVmiddle
p1501
F1.688651886591939e-05
sVone-sidedly
p1502
F1.000542455277253e-05
sVsudden
p1503
F0.00013404829626265297
sVironic
p1504
F9.241362811335523e-05
sVgrievous
p1505
F6.953513182999336e-05
sVobnoxious
p1506
F7.225295484661047e-05
sVkosher
p1507
F2.3118720580358035e-05
sVdifferent
p1508
F8.55383741069717e-05
sVingrained
p1509
F4.81773200950384e-07
sVharsh
p1510
F9.970443933125863e-05
sVdoctor
p1511
F1.2216073800061895e-05
sVsmoother
p1512
F9.676471667074332e-05
sVgranted
p1513
F1.2819049762839138e-06
sVscientifically
p1514
F3.791852916596223e-05
sVimmense
p1515
F0.0009180020198755729
sVsame
p1516
F0.00012781400391248792
sVwreckable
p1517
F9.941026347077516e-06
sVconstructed
p1518
F1.3657806396999105e-10
sVinoffensive
p1519
F7.433836573371857e-05
sVmoronic
p1520
F2.304650762308034e-05
sVnoble
p1521
F0.00011913095489453746
sVeven-handed
p1522
F0.00013652731522671593
sVclosest
p1523
F9.264960322039414e-05
sVrefusal
p1524
F3.5885575049260512e-06
sVdisadvantaged
p1525
F5.655330484905091e-05
sVbulletproof
p1526
F6.15543309054033e-06
sVrunning
p1527
F6.238599452555552e-10
sVdelicate
p1528
F2.7536336912716928e-05
sVunqualified
p1529
F0.0
sVchanging
p1530
F1.967655487284997e-05
sVcheery
p1531
F3.8111200670285326e-06
sVdiscernable
p1532
F3.4035890546903536e-05
sVdisputable
p1533
F1.91124722746692e-06
sVpurer
p1534
F1.0463450986935447e-05
sVthreaded
p1535
F1.231086618108066e-05
sVrebatable
p1536
F0.0
sVoversensitive
p1537
F2.3994039932387966e-06
sVno
p1538
F4.5071011268662425e-05
sVcustomized
p1539
F2.462173236216132e-05
sVsubstantive
p1540
F2.071731497191859e-05
sVfrozen
p1541
F6.842712101080523e-05
sVsevere
p1542
F0.0005134438389765313
sVimmeasurable
p1543
F0.00012088251666646617
sVluminous
p1544
F0.0006867801637683626
sVgrumpy
p1545
F8.207236293682511e-06
sVunconvincing
p1546
F3.6363948186682223e-06
sVuncomplicated
p1547
F0.00010651265324377057
sVamazed
p1548
F3.4795108055093046e-05
sVcharged
p1549
F5.290895803539397e-10
sVdesolate
p1550
F5.018147338874911e-06
sVmanifold
p1551
F2.6321011140355258e-05
sVpre-published
p1552
F1.1057288941228622e-05
sVbeing
p1553
F1.7619758669089328e-05
sVknowledgeable
p1554
F5.638683405650537e-05
sVinter-linked
p1555
F9.182742256179822e-05
sVvaluable
p1556
F0.0010959280254555863
sVunofficial
p1557
F0.0
sVviolent
p1558
F5.0983782909653994e-05
sVunclear
p1559
F9.559620592975664e-05
sVnon-binding
p1560
F1.256979820273855e-06
sVflaccid
p1561
F1.545991609798455e-05
sVimpractical
p1562
F5.7264845884549294e-05
sVinaudible
p1563
F1.231086618108066e-05
sVperilous
p1564
F3.176284059451473e-05
sVblow
p1565
F3.078804026497707e-08
sVbi-directional
p1566
F0.0
sVclueless
p1567
F0.0
sVwidest
p1568
F0.00040434234900970864
sVvice-chair
p1569
F1.5389967743171014e-05
sVforward-looking
p1570
F9.84757245787222e-06
sVlifelong
p1571
F2.7771858475600665e-06
sVsenseless
p1572
F0.00011039270545417272
sVimprovement
p1573
F0.0
sVcomplements
p1574
F3.262063812134465e-05
sVextensive
p1575
F0.0005653754337640962
sVheavier
p1576
F0.00019413644258106717
sVjoyful
p1577
F3.7317791091623884e-06
sVdisproportionate
p1578
F0.00018153871879298574
sVscheduled
p1579
F6.732324797999261e-06
sVaround
p1580
F9.99632709764584e-05
sVspectacular
p1581
F0.0033097763845932066
sVoutermost
p1582
F8.429850726771108e-06
sVover-ambitious
p1583
F8.582484293899549e-07
sVgonna
p1584
F0.0018006467668579005
sVdark
p1585
F9.061189693530925e-05
sVawol
p1586
F2.1914332414073733e-07
sVtraffic
p1587
F1.042681121088331e-10
sVdarn
p1588
F1.5116645167930606e-05
sVaccepted
p1589
F9.795823402427091e-06
sVdisappointed
p1590
F3.019316057615368e-05
sVvague
p1591
F3.1911191294803043e-05
sVsensational
p1592
F0.0026412694492134693
sVacute
p1593
F0.000133916722806121
sVacquainted
p1594
F0.00022962415957899
sVstranger
p1595
F5.711968537155766e-05
sVaction-oriented
p1596
F2.3477501677556325e-06
sVnosy
p1597
F1.6718025676869022e-05
sVcollective
p1598
F8.27876064776087e-06
sVindisputable
p1599
F3.0783602804864666e-05
sVtardy
p1600
F9.165923970728793e-06
sVwrongful
p1601
F2.196934438598213e-09
sVaudience
p1602
F9.740170536058375e-06
sVwell-prepared
p1603
F0.01610258390673474
sVeither
p1604
F1.3531772009439562e-05
sVresolved
p1605
F9.847562640083287e-06
sVserved
p1606
F1.231086618108066e-05
sVdirtier
p1607
F4.1460261731403714e-05
sVpassionate
p1608
F0.00014769568677006523
sVwell-received
p1609
F0.00010599792219965102
sVtwelve
p1610
F0.0
sVsatisfactory
p1611
F0.00010449225786927067
sVexposed
p1612
F3.1426550082178967e-10
sVpushy
p1613
F0.0
sVoverworked
p1614
F1.830456349358185e-06
sVsupplementary
p1615
F4.218482754608118e-05
sVcalculated
p1616
F7.027978341604518e-06
sVmoreover
p1617
F6.538834673437394e-06
sV-me
p1618
F1.5924656705681338e-06
sVintact
p1619
F0.000112202703649338
sVextinct
p1620
F2.1914332414073733e-07
sVbooming
p1621
F3.848740057453736e-06
sVprovided
p1622
F6.350325756423135e-05
sVperverse
p1623
F4.0887127753256355e-05
sVunlocked
p1624
F1.7604212056708984e-05
sVriveting
p1625
F0.00011951312944547584
sVdrenched
p1626
F0.0
sVdefenceless
p1627
F7.482822722571084e-06
sVslick
p1628
F0.00043013472255603935
sVlegal
p1629
F5.8637959375204755e-05
sVconservative
p1630
F4.667793325551579e-05
sVnutty
p1631
F0.00020219175499997218
sVtailor-made
p1632
F1.9060023409736524e-06
sVcritical
p1633
F0.0005093854330760145
sVmoot
p1634
F2.270833630746669e-05
sVclear-cut
p1635
F4.33676843302742e-05
sVrefundable
p1636
F2.727506922764558e-05
sVdeceptive
p1637
F1.965245001825957e-05
sVmoderate
p1638
F4.259472347092102e-05
sVwell-planned
p1639
F8.290155190359153e-06
sVbiased
p1640
F1.000542455277253e-05
sVfelt
p1641
F5.252412850154968e-08
sVhiv-infected
p1642
F9.682626765304126e-06
sVintimate
p1643
F1.231086618108066e-05
sVmanufactured
p1644
F1.3657806396999105e-10
sVequivalent
p1645
F1.6078174101825297e-05
sVnotable
p1646
F0.0008492494659764182
sVmiscellaneous
p1647
F5.048589132318962e-06
sVnotably
p1648
F7.586582034717843e-06
sVuneasy
p1649
F0.0001109603411312457
sVdespicable
p1650
F1.0200351805992894e-05
sVterrified
p1651
F1.9973875446542224e-05
sVexciting
p1652
F0.004139035257758353
sVfinicky
p1653
F1.4546812662294644e-05
sVrepeating
p1654
F7.322798498892333e-06
sVon
p1655
F2.115581406018862e-05
sVsubdued
p1656
F0.0
sVok
p1657
F0.0011012017572765704
sVof
p1658
F9.882320117526862e-06
sVfavorite
p1659
F9.469556600355739e-05
sVreinforcing
p1660
F0.0001850675416458209
sVslender
p1661
F6.779347056742719e-06
sVpractical
p1662
F0.00012557165232967367
sVaddition
p1663
F2.7131500923861623e-05
sVpracticable
p1664
F0.00015714927797960202
sVdeterminable
p1665
F2.1631913144162637e-05
sVunderway
p1666
F3.5355299745637914e-05
sVmixed
p1667
F0.000308098321709959
sVmean
p1668
F4.667223582139004e-08
sVprovisional
p1669
F9.764726186708207e-06
sVreferenced
p1670
F3.0291009539141014e-05
sVmeagre
p1671
F0.00018884429848348687
sVlong-lived
p1672
F3.360824765192267e-05
sVflawed
p1673
F1.6744060015021653e-05
sVskilled
p1674
F4.63245260665169e-05
sVblessed
p1675
F9.177765296128908e-05
sVrising
p1676
F1.3657806396999105e-10
sVlively
p1677
F0.00013824695051062026
sVheated
p1678
F2.220437808001845e-05
sVelementary
p1679
F4.426983407193974e-05
sVuptown
p1680
F5.388223594574416e-11
sVlastly
p1681
F0.0
sVtechnically
p1682
F2.2090942789350878e-05
sVher
p1683
F1.0172510882857628e-05
sVever-increasing
p1684
F9.846511089378977e-05
sVthere
p1685
F0.00010923260432437507
sVhey
p1686
F0.0
sVstark
p1687
F2.5078988166904548e-05
sVstart
p1688
F0.0027376016899194355
sVcompliant
p1689
F1.1825395352821057e-05
sVmissy
p1690
F3.364586389345029e-06
sVuntapped
p1691
F1.231086618108066e-05
sVsealed
p1692
F2.6278911708001236e-06
sVresolute
p1693
F2.720942091067974e-05
sVdeposited
p1694
F4.844768467232073e-06
sVdecisive
p1695
F9.552732687177171e-05
sVhysterical
p1696
F0.0006409968623076565
sVallergic
p1697
F1.231086618108066e-05
sVcomplete
p1698
F0.0001877366015115443
sVvested
p1699
F1.2819049762839138e-06
sVunsettled
p1700
F6.2189147118387544e-06
sVdelayed
p1701
F9.165946885304988e-06
sVsophisticated
p1702
F0.00032322420842143007
sVchange
p1703
F3.9079161916473507e-10
sVtwo-thirds
p1704
F0.0006137749865927967
sVantiquated
p1705
F3.305242411152447e-07
sVattainable
p1706
F9.02613247478709e-05
sVwith
p1707
F1.4774169722078022e-05
sVbelated
p1708
F9.165939247091535e-06
sVhappening
p1709
F3.837942162607347e-06
sVabused
p1710
F1.4768301374923895e-10
sVarranged
p1711
F5.560671073282022e-09
sVromantic
p1712
F2.143155282052963e-06
sVembedded
p1713
F3.0400021751895067e-06
sVreceptive
p1714
F4.104056451029202e-10
sVreasoned
p1715
F1.7739291241742076e-06
sVbrain-dead
p1716
F0.0001783686620833424
sVdirty
p1717
F0.00023036676312515193
sViegitimate
p1718
F7.313193212380199e-10
sVabove-board
p1719
F1.9699061663325097e-05
sVpolitically
p1720
F6.760026313944011e-06
sVpowerless
p1721
F9.984407674574108e-05
sVdarker
p1722
F0.00011433116503763676
sVdetailed
p1723
F8.319203227181215e-05
sVgone
p1724
F5.97506144596327e-05
sVrequired
p1725
F4.8329472655349224e-05
sVflexibly
p1726
F8.82021169352889e-06
sVjohnny
p1727
F1.231086618108066e-05
sVgratuitous
p1728
F4.498084048555811e-06
sVexhausted
p1729
F1.1484212625080192e-05
sVcertain
p1730
F6.220759344372866e-05
sVdeep
p1731
F0.0003279355638443237
sVgeneral
p1732
F0.0001491285151047388
sVas
p1733
F1.8388020620318645e-05
sVtasty
p1734
F0.000538845868362393
sVtogether
p1735
F5.3604657051311725e-05
sVcorresponding
p1736
F1.109749845675585e-05
sVtedious
p1737
F3.2359711317081835e-05
sVagain
p1738
F2.0757012673422934e-05
sVonerous
p1739
F0.00011706818730711299
sVideally
p1740
F1.2254970343768532e-08
sVidiot
p1741
F4.067979721089819e-06
sVadministered
p1742
F6.8794464010222835e-06
sVluckier
p1743
F8.598006698316726e-05
sVvocational
p1744
F2.696946265144073e-06
sVgraduate
p1745
F0.0
sVshort-sighted
p1746
F1.8609726486190966e-05
sVtight
p1747
F0.00010690397691559873
sVvalid
p1748
F0.0001007230231032412
sVthought-provoking
p1749
F5.795372992627491e-05
sVyou
p1750
F5.9472809792437244e-05
sVincomprehensible
p1751
F5.25931701206911e-05
sVwell-paid
p1752
F4.186143631296712e-06
sVdisgraceful
p1753
F0.00021889870576005037
sVpoor
p1754
F0.0003091981457174842
sVrequested
p1755
F4.524536122847834e-06
sVbriefly
p1756
F1.1890558791591621e-05
sVdead-on
p1757
F7.038678349249082e-05
sVineligible
p1758
F3.527291606084253e-06
sVopen-ended
p1759
F4.482466760822183e-05
sVobsessed
p1760
F1.287604839435299e-09
sVseparate
p1761
F4.456755853300202e-05
sVstocky
p1762
F4.529841566043269e-05
sVimportant
p1763
F0.0015075630639576018
sVsuited
p1764
F1.1924204628731556e-05
sVfresh
p1765
F0.00012470375179953722
sVincluded
p1766
F2.4770682644978293e-05
sVequitable
p1767
F0.00011799978762562995
sVprudent
p1768
F0.00012473642760002195
sVconclusive
p1769
F0.00011574050949098945
sVtricky
p1770
F0.0002698994644934704
sVbooked
p1771
F4.056000821710682e-09
sVclinically
p1772
F3.267419271804192e-06
sVomnibus
p1773
F6.805475168667906e-06
sVimprecise
p1774
F2.4109651758561457e-05
sVfoutu
p1775
F2.6657752253277422e-06
sVunscathed
p1776
F3.791852916596223e-05
sVsaved
p1777
F1.540740280795682e-05
sVexhausting
p1778
F1.231086618108066e-05
sVgross
p1779
F0.00011701235750485333
sVfraudulent
p1780
F0.00025937285366534296
sVpretentious
p1781
F1.231086618108066e-05
sVrecognising
p1782
F1.3159467059270576e-05
sValright
p1783
F0.0013077905506290958
sVoral
p1784
F5.618978529927567e-05
sVoriginal
p1785
F4.855771905225938e-06
sVinteroperable
p1786
F1.044995335758196e-05
sVall
p1787
F0.00011195244812170419
sVhateful
p1788
F8.57841832755152e-06
sVbreadth
p1789
F2.0865035680452954e-05
sVcrucial
p1790
F0.000414173792972046
sVinvariable
p1791
F8.047736209211095e-06
sVanti-constitutional
p1792
F3.315030280692737e-05
sVsplitting
p1793
F5.806184457281491e-08
sVfounded
p1794
F7.829828972273671e-06
sVthoughtful
p1795
F0.000459518866917146
sVsystemic
p1796
F3.4371241150522664e-10
sVcooperative
p1797
F9.678073463094445e-06
sVmessy
p1798
F0.0029705227111795295
sVcustomary
p1799
F4.9027242611261115e-05
sVdebatable
p1800
F1.681258169593081e-05
sVfaster
p1801
F9.330775504347809e-05
sVreligious
p1802
F1.231086618108066e-05
sVgo
p1803
F0.005927915557967782
sVarming
p1804
F6.15543309054033e-06
sVdreadful
p1805
F0.0006266786617377608
sVattentive
p1806
F1.5165892244268604e-05
sVeverywhere
p1807
F7.2145040552555584e-06
sVstartled
p1808
F3.479516604626709e-05
sVfacultative
p1809
F9.84757245787222e-06
sVinexhaustible
p1810
F1.063220019477425e-05
sVextraneous
p1811
F2.5361006801936205e-05
sVto
p1812
F0.00022323856161076558
sVdeep-rooted
p1813
F1.4331838128202216e-06
sVmulti-faceted
p1814
F1.3288792684113218e-06
sVhideous
p1815
F0.00013922013734321694
sVimmutable
p1816
F7.51137122602781e-05
sVsound
p1817
F0.0016748876753485177
sVcomercial
p1818
F4.498084048555811e-06
sVworse
p1819
F0.001450863835965462
sVequivocal
p1820
F1.7795887101663613e-05
sVfar
p1821
F0.00017573269765802679
sVfat
p1822
F0.0008610445246477991
sVcandid
p1823
F1.6714054815536058e-05
sVworst
p1824
F0.0008556254505840199
sVfall
p1825
F3.746510187452748e-09
sVawful
p1826
F0.0004990537442684269
sVefficacy
p1827
F8.602413454709791e-06
sVmanageable
p1828
F6.745616595669961e-05
sVtiresome
p1829
F1.6571796393931942e-05
sVgeneralised
p1830
F1.5167010268521416e-05
sValien
p1831
F1.5228610622656797e-05
sVsentimental
p1832
F7.557953574721904e-06
sVproscribed
p1833
F9.847562640083287e-06
sVmarvellous
p1834
F0.008767007469371778
sVageing
p1835
F2.8547849365780303e-08
sVprolonged
p1836
F2.1232853002815988e-05
sVbone-dry
p1837
F0.0
sVlarge
p1838
F0.0010051965860842394
sVsane
p1839
F0.0005114063633102139
sVunproblematic
p1840
F2.09383713044521e-05
sVsalute
p1841
F1.6856255092289668e-05
sVsmall
p1842
F0.0002800861043017874
sVeconomically
p1843
F7.2267549650939105e-06
sVquicker
p1844
F0.00020490505370513893
sVten
p1845
F0.0
sVcolossal
p1846
F0.0001526575244695897
sVcorrigendum
p1847
F1.6056988378609154e-05
sVhereto
p1848
F3.362412917812247e-05
sVbuilt-in
p1849
F0.0
sVpreposterous
p1850
F8.283448685190924e-05
sVself-contained
p1851
F1.3951667659792916e-05
sV19
p1852
F5.701499059243802e-07
sVzero
p1853
F8.455168013854422e-06
sVenhancement
p1854
F4.1237589734343694e-05
sVfurther
p1855
F6.782263965350446e-05
sVfunctioning
p1856
F2.6659320438057395e-05
sVdestitute
p1857
F1.5103133767485276e-05
sVcasual
p1858
F3.101550171356556e-06
sVreturned
p1859
F2.7639352818745743e-07
sVimported
p1860
F3.545776017109296e-11
sVillogical
p1861
F4.6384920759124986e-05
sVadvantageous
p1862
F0.00017150620620137093
sVshort-lived
p1863
F0.0001548141418302602
sVpoisonous
p1864
F6.489252240433043e-08
sVbrief
p1865
F9.760241958221472e-05
sVrun
p1866
F1.565767230565841e-05
sVsuccinct
p1867
F2.6586519419034992e-06
sVjudicious
p1868
F5.60276462722295e-05
sVongoing
p1869
F0.0001143214393487876
sVpublic
p1870
F6.767014577615094e-05
sVrevealing
p1871
F4.3644947012481816e-11
sVoutgoing
p1872
F8.799465627655068e-06
sVfull
p1873
F0.00011235030230569161
sVchristian
p1874
F1.231086618108066e-05
sVsentient
p1875
F1.4631707047934858e-05
sVunprofessional
p1876
F1.960854527215671e-06
sVloose
p1877
F0.000467563068002477
sVfavourable
p1878
F0.0008893464980179913
sVinconsiderable
p1879
F0.00011777435300668276
sVselective
p1880
F1.231086618108066e-05
sVstrong
p1881
F0.0010943467819975847
sVthready
p1882
F5.0378054565379075e-05
sVfatter
p1883
F6.922911324419718e-05
sVidentifiable
p1884
F7.371836198404521e-05
sVexceptionally
p1885
F1.133366566851537e-05
sVcreepy
p1886
F0.0006356494200613624
sVwell-structured
p1887
F3.083147031831819e-05
sVprior
p1888
F2.4139984338652502e-05
sVhealthier
p1889
F0.0002195246339490815
sVpublished
p1890
F2.1534218066116604e-05
sVheartbroken
p1891
F6.310541408610182e-06
sVnarrow
p1892
F3.29798621982146e-05
sVweirder
p1893
F2.5473865578674015e-05
sVelongated
p1894
F6.042445568587966e-05
sVsuddenly
p1895
F7.555659513878747e-05
sVmarginal
p1896
F0.0005947693661337056
sVcosmetic
p1897
F1.0642350679943667e-05
sVtrained
p1898
F2.0333471471033417e-07
sVuntraceable
p1899
F9.847562640083287e-06
sVarmed
p1900
F2.462173236216132e-05
sVnon-specific
p1901
F3.723101090074825e-05
sVhurtin
p1902
F4.824933074756596e-05
sVconventional
p1903
F0.00021415175767257913
sVproceed
p1904
F0.0052030598934906715
sVdistinct
p1905
F0.00014736110630107007
sVall-round
p1906
F9.28643844807544e-06
sVtwo
p1907
F2.2944855820810554e-05
sValmost
p1908
F0.0005225778636513288
sVnothingg
p1909
F7.038678349249082e-05
sVfreest
p1910
F7.628210332037629e-06
sVhlv-positive
p1911
F9.682626765304126e-06
sVgorgeous
p1912
F0.004514421093742151
sVmysterious
p1913
F9.0845745301221e-05
sVtacky
p1914
F5.933419132833461e-06
sVunthinkable
p1915
F0.00017855777170555355
sVminor
p1916
F0.00029817642498962003
sVmore
p1917
F0.0006010913471440188
sVflat
p1918
F5.267614014586942e-06
sVunderprivileged
p1919
F4.6384019228230955e-05
sVstaggering
p1920
F0.0015046505416188764
sVregrettable
p1921
F2.760592001430897e-05
sVspoilt
p1922
F2.6748223952700826e-06
sVone-sided
p1923
F3.140423779251717e-05
sVinstrumental
p1924
F0.00016345365138865144
sVcommenced
p1925
F1.3420913553788431e-05
sVgrisly
p1926
F8.998699794734309e-05
sVbasically
p1927
F3.791852916596223e-05
sVbroke
p1928
F1.0840975417582952e-05
sVparticular
p1929
F0.0002250980690585319
sVknown
p1930
F9.856170191260377e-05
sVhurry
p1931
F1.1831837585518547e-05
sVnineteen
p1932
F5.701499059243802e-07
sVglad
p1933
F0.00012818234073635234
sVpleasing
p1934
F4.0632892190671483e-10
sVhour
p1935
F1.231086618108066e-05
sVcanceled
p1936
F1.046879581428857e-05
sVshielded
p1937
F6.15543309054033e-06
sVlong-winded
p1938
F6.15543309054033e-06
sVdebated
p1939
F1.846509741243416e-05
sVineffectual
p1940
F1.055497989845883e-05
sVspecialized
p1941
F1.3863074323656634e-05
sVself-conscious
p1942
F0.00010651204642879341
sVhistory
p1943
F7.406502196103562e-07
sVbeautiful
p1944
F0.0032150160235646084
sVstubborn
p1945
F2.635529997513696e-05
sVembarrassing
p1946
F0.00010575904947955605
sVwell-coordinated
p1947
F3.3900085142859443e-06
sVlife-threatening
p1948
F0.0011471405140337579
sVstated
p1949
F6.353893755723346e-05
sVmeaner
p1950
F1.119934021575689e-05
sVprescriptive
p1951
F1.231086618108066e-05
sVsicker
p1952
F3.407856526065029e-05
sVunbiased
p1953
F2.784115973098143e-07
sVminimum
p1954
F6.465739090697541e-05
sVsharp
p1955
F4.63253278443038e-05
sVlongest
p1956
F3.322698020039571e-05
sVmainstream
p1957
F3.0116388318516103e-05
sV!
p1958
F4.112519517666012e-10
sVhuge
p1959
F0.0009614128010962428
sVgoal
p1960
F9.84757245787222e-06
sVawkward
p1961
F0.00029533198942046805
sVlousy
p1962
F0.00016391666663044004
sVneedy
p1963
F0.00030766810690608526
sVimminent
p1964
F2.307645796224295e-05
sVpressing
p1965
F3.5826621949284194e-05
sVdismissed
p1966
F0.0
sVunlucky
p1967
F4.192213710651663e-05
sVglowing
p1968
F0.0007279057701969743
sVsacred
p1969
F3.001623636488377e-05
sVheadstrong
p1970
F5.774566345902474e-06
sVhopeless
p1971
F0.0007056403600633652
sVacknowledging
p1972
F1.877615904423311e-05
sVokay
p1973
F0.0007263185416674675
sVintended
p1974
F0.0014632854420110247
sVrude
p1975
F0.00021373654062247936
sVpetite
p1976
F3.364586389345029e-06
sVhinky
p1977
F2.220437808001845e-05
sVbeastly
p1978
F2.0072877857304654e-05
sVdeath-proof
p1979
F1.826276397812936e-05
sVunsound
p1980
F1.195327508601522e-05
sVfast-growing
p1981
F2.1850782169662202e-05
sVcoming
p1982
F2.6089615617107086e-06
sVinconceivable
p1983
F0.00028671135080250633
sVauthentic
p1984
F3.8062894088345667e-05
sVundisputable
p1985
F6.385501664919774e-05
sVbleak
p1986
F0.00018704215474747143
sVa
p1987
F1.643791491682071e-05
sVsnotty
p1988
F1.231086618108066e-05
sVshort
p1989
F0.0001037258997776031
sVpreferential
p1990
F1.231086618108066e-05
sVcrowded
p1991
F1.2363683536268975e-05
sVquoted
p1992
F3.0291009539141014e-05
sVgroundless
p1993
F3.068010945650172e-05
sVgeneric
p1994
F3.989659988165725e-05
sVgloomy
p1995
F0.00010326253755696216
sVnegligible
p1996
F0.00014631489875532343
sVskilful
p1997
F1.7701243029562334e-13
sVfundamental
p1998
F0.0001938821491378023
sVpitch-dark
p1999
F0.0
sVimpermissible
p2000
F2.2107136589023285e-05
sVgeographic
p2001
F1.0303794443087032e-05
sVcrafty
p2002
F9.267501884565742e-05
sVdepraved
p2003
F0.0
sVdeveloped
p2004
F2.6485317484304324e-05
sVheartfelt
p2005
F4.932604093387949e-06
sVco-chairperson
p2006
F0.0
sVsoon
p2007
F3.892454587609747e-05
sVcarmela
p2008
F1.2994671321703529e-05
sVinstalled
p2009
F1.231086618108066e-05
sVwide-ranging
p2010
F0.0004346655347158676
sVheld
p2011
F5.603011572029949e-05
sVnaughty
p2012
F0.00012711131583481946
sVthrough
p2013
F0.00020154517100123704
sVsupra
p2014
F3.68244224286957e-06
sVcommitted
p2015
F2.763435567049888e-06
sVstone-cold
p2016
F5.7714429071570215e-06
sVforgiving
p2017
F6.491922179430844e-05
sVunhealthy
p2018
F0.00028112927157877864
sVbummed
p2019
F6.643060470886685e-06
sVrapidly
p2020
F3.3864694237356865e-06
sVprat
p2021
F4.067944127024159e-06
sVmistreated
p2022
F1.4768449057937582e-05
sVbeautifui
p2023
F0.0005815728146890704
sVcoarser
p2024
F2.4405773157000463e-05
sVfruitful
p2025
F7.268712309074578e-05
sVlate
p2026
F9.124419005493199e-05
sVharmless
p2027
F0.0003948813194163084
sVdisclosed
p2028
F4.49818831666792e-06
sVattended
p2029
F3.859877227354131e-10
sVnifty
p2030
F9.318763541718282e-05
sVself-aware
p2031
F5.616691984962534e-06
sVbereft
p2032
F0.00030766578111494246
sVfiner
p2033
F0.000462516813019014
sVfocussed
p2034
F0.0
sVhurting
p2035
F5.4956358986174914e-05
sVgood
p2036
F0.0018094379525312762
sVmotivated
p2037
F6.568841959727367e-06
sVyo
p2038
F2.6239892139575177e-05
sVunreal
p2039
F0.001338256175890787
sVanticipated
p2040
F5.598796012517872e-05
sVshitless
p2041
F5.638688783852049e-06
sVpermissible
p2042
F7.161203280012254e-05
sVnon-compliant
p2043
F1.7460520307704308e-06
sVbigger
p2044
F0.000743931377915058
sVlovable
p2045
F0.00025666119024612407
sVshifty
p2046
F3.347290867895307e-05
sVsubtler
p2047
F8.663168741034829e-05
sVfully
p2048
F5.6526741300790894e-05
sVnauseous
p2049
F3.407856526065029e-05
sVutilized
p2050
F2.1278866185563788e-05
sVreaily
p2051
F0.0005190008856492846
sVgoofy
p2052
F9.267195247480829e-05
sVstopped
p2053
F4.167193713590042e-06
sVaggrieved
p2054
F0.0
sVinherent
p2055
F3.824920162847294e-05
sVshocking
p2056
F0.0023816494000829884
sVintolerable
p2057
F0.00022290632329081424
sVexquisite
p2058
F0.004438041288176278
sVforthright
p2059
F1.8812051893241385e-05
sVheavy
p2060
F0.00016108511676829278
sVmisguided
p2061
F5.558738860020894e-06
sVeveryone
p2062
F7.336828184693999e-06
sVdelicious
p2063
F0.0008247213563607474
sVneedless
p2064
F1.7878128423936965e-05
sVundetectable
p2065
F1.4774169722078022e-05
sVcolder
p2066
F6.692427095825274e-05
sVhard
p2067
F0.00011114233177217007
sVpositioned
p2068
F2.4593701779914697e-08
sVwacky
p2069
F0.00011711263682257057
sVmodernized
p2070
F8.650876548951331e-07
sVexorbitant
p2071
F2.329231173571001e-05
sVirreconcilable
p2072
F5.130516487064436e-06
sVpro-poor
p2073
F8.50238357206463e-06
sVwacko
p2074
F8.000716364895232e-05
sVorganised
p2075
F1.419208113820632e-05
sVreally
p2076
F0.0007266400079638379
sVanxious
p2077
F0.0001305079810644983
sVfoolproof
p2078
F0.00010005105568521835
sVpresumptuous
p2079
F1.231086618108066e-05
sVunnatural
p2080
F5.558701802625906e-06
sVchildish
p2081
F0.0015745632699393944
sVsurrounded
p2082
F8.042919665154928e-05
sVjolly
p2083
F8.051286805680412e-05
sVparticipants
p2084
F0.0
sVdarling
p2085
F0.00029190891788538566
sVinduced
p2086
F1.231086618108066e-05
sVissue
p2087
F6.688873241010744e-06
sVhard-pressed
p2088
F1.049128785443107e-05
sVuh-huh
p2089
F1.6856255092289668e-05
sVmission-critical
p2090
F1.5170866424210728e-05
sVpathetic
p2091
F0.0001435269950693863
sVfound
p2092
F1.231086618108066e-05
sVparched
p2093
F8.689455270813447e-06
sVmotherfucker
p2094
F2.1456125478380533e-06
sVlike
p2095
F0.0001466190876860487
sVpleasant
p2096
F0.000731748404992988
sVextraordinary
p2097
F0.004301667214328066
sVreason
p2098
F3.578197284413376e-05
sVbrightest
p2099
F0.0006867801637683626
sVdire
p2100
F0.0006918886781889547
sVvigorous
p2101
F0.00019407046059500866
sVecologically
p2102
F7.860843577300885e-05
sVlaughable
p2103
F3.9931419666584254e-05
sVearliest
p2104
F1.93036700755634e-05
sVunresolved
p2105
F0.0001719970196393539
sVunbecoming
p2106
F1.044304083353573e-10
sV-sorry
p2107
F7.425927566075642e-05
sVannulled
p2108
F1.5788906032082542e-06
sVbroad-based
p2109
F8.238149886457212e-05
sVterrible
p2110
F0.0013511475016640445
sVamerican
p2111
F3.4315755871338176e-05
sVjurisdictional
p2112
F1.554336362591064e-05
sVexpedient
p2113
F0.00016540679626914081
sVmerry
p2114
F1.1234406787999772e-05
sVindebted
p2115
F2.2530317172750282e-06
sVmajor
p2116
F0.000616530976406117
sVengagement
p2117
F4.3773264418087277e-07
sVrooted
p2118
F5.2245870727198506e-08
sVupper
p2119
F4.591056003951796e-05
sVradical
p2120
F6.004276596993738e-05
sVbelligerent
p2121
F9.487633937210768e-11
sVfancy
p2122
F0.0004962280581506975
sViucky
p2123
F6.795714521169503e-05
sVwell-known
p2124
F6.530165056226468e-05
sVfierce
p2125
F0.00012119505647251577
sVenlarged
p2126
F9.489230342354224e-05
sVunexpected
p2127
F0.0005377178538783252
sVdone
p2128
F7.554892714465404e-05
sVblank
p2129
F0.000116021223163701
sVnorth-east
p2130
F3.4556636959916764e-06
sVsingle-ranked
p2131
F6.545012867421656e-05
sVobligatory
p2132
F0.0
sV"
p2133
F0.00010357783220536448
sVstress-related
p2134
F0.0
sVbloodied
p2135
F8.404283100782748e-06
sVinexcusable
p2136
F2.7065288108074117e-05
sVtwenty
p2137
F5.701499059243802e-07
sVfinanced
p2138
F4.924346472432264e-05
sVtougher
p2139
F0.0005072934380356503
sVmoderately
p2140
F5.367525991230776e-06
sVcomfy
p2141
F0.0004245071028588478
sVleast
p2142
F0.0002546077366379338
sVelegante
p2143
F4.806313790033793e-06
sVexcitable
p2144
F7.093378914359184e-05
sVobtainable
p2145
F3.837942162607347e-06
sVomnipresent
p2146
F5.3517107134508516e-05
sVendearing
p2147
F0.0
sVwonderfui
p2148
F0.0010728036834322214
sVmama
p2149
F4.1125606428611724e-05
sVnigeria
p2150
F3.0550903488795634e-08
sVenchanting
p2151
F0.00018344258365479932
sVmerciless
p2152
F9.225764078897261e-07
sVtoo
p2153
F0.00010657132766302236
sVtreasured
p2154
F0.0
sVrelieved
p2155
F2.007231681868555e-06
sVantsy
p2156
F1.7952465677166272e-05
sVimmediate
p2157
F4.25433143718604e-05
sVinconsequential
p2158
F1.6856255092289668e-05
sVoff-putting
p2159
F3.812489286386256e-05
sVsizable
p2160
F2.3859933053048978e-05
sVpart
p2161
F2.4123404227206894e-08
sVnon-competitive
p2162
F1.0371686199315194e-06
sVfavorable
p2163
F2.8027215005359593e-05
sVgruesome
p2164
F0.00017368845629879264
sVscaleable
p2165
F0.0
sVrampant
p2166
F0.00016360247815235088
sVrespendable
p2167
F6.123130224380027e-05
sVkind
p2168
F3.45236125665291e-05
sVstate-owned
p2169
F8.141437748751896e-05
sVdouble
p2170
F9.942596899840486e-06
sVlargely
p2171
F1.5130943649679705e-05
sVoutrageous
p2172
F0.0005865562373108353
sVdetermined
p2173
F4.590933376807271e-05
sVcontrary
p2174
F3.468074576751449e-05
sVuncanny
p2175
F0.00011967257072369128
sVinsulted
p2176
F0.0
sVstale
p2177
F8.85417878605337e-06
sVtreated
p2178
F1.231086618108066e-05
sVrisky
p2179
F0.00010495369581629699
sVferociously
p2180
F2.0834136782021166e-06
sVcleaner
p2181
F0.0004337852577210173
sVmotivation
p2182
F1.7739291241742076e-06
sVvacant
p2183
F4.545949528594224e-05
sVbad
p2184
F0.000840939379162595
sVsubstantiated
p2185
F2.4943596132672695e-06
sVoutstanding
p2186
F0.00361951089072093
sVurgently
p2187
F0.0
sVsuspicious
p2188
F7.680893992377048e-05
sVwell-developed
p2189
F2.294003506741585e-06
sVaffirmative
p2190
F4.7115470461254615e-05
sVcattled
p2191
F2.665757453907289e-06
sVwell-written
p2192
F9.847562640083287e-06
sVsubstantial
p2193
F0.0014088963704224785
sValike
p2194
F3.3687417413465505e-05
sVcognizant
p2195
F4.9874833262959e-05
sVimperfect
p2196
F1.388394284815451e-06
sVcumbersome
p2197
F0.00018959228510291384
sVnull
p2198
F3.715122946023994e-10
sVsalutary
p2199
F2.60603344869342e-05
sVvulnerable
p2200
F6.437551093695878e-05
sVbriiliant
p2201
F0.001517524835158167
sVsell
p2202
F1.231086618108066e-05
sVbuilt
p2203
F1.3657806396999105e-10
sVdestabilizing
p2204
F8.139485221064766e-05
sVempowered
p2205
F1.4774169722078022e-05
sVaccountable
p2206
F7.563176398240909e-06
sVheterosexual
p2207
F1.7875475246334552e-05
sVlit
p2208
F1.231086618108066e-05
sVmoist
p2209
F3.6211317027304235e-10
sVrecognizing
p2210
F2.443511397806744e-05
sVinternal
p2211
F2.963396721836857e-06
sVbarmy
p2212
F0.00013796091207883123
sVgeneralized
p2213
F2.7431496611255396e-05
sVfrail
p2214
F1.1042042428434642e-05
sVaggravating
p2215
F6.85697916733496e-06
sVorderable
p2216
F0.000411891384792426
sVon-going
p2217
F1.3584379816200546e-05
sVinsufferable
p2218
F2.0963392806445054e-05
sVextensible
p2219
F1.231086618108066e-05
sVmarginalized
p2220
F1.7213839736208929e-06
sVcontestable
p2221
F1.91124722746692e-06
sVnon-compensatory
p2222
F1.256979820273855e-06
sVmedium-sized
p2223
F5.7713303115971214e-06
sVunused
p2224
F3.30520935905887e-12
sVmost
p2225
F0.0003168134366238108
sVsponsored
p2226
F7.177172672452228e-11
sVunder-funded
p2227
F0.00019140721269090262
sVenduring
p2228
F1.3971376563061178e-05
sVnothing
p2229
F0.0005541954895153001
sVdefensible
p2230
F3.1400228020421356e-05
sVfaint
p2231
F4.4042311370306345e-05
sVextremely
p2232
F8.50412257854179e-05
sVapproved
p2233
F5.5024255825759094e-06
sVfunnier
p2234
F1.231086618108066e-05
sVself-governed
p2235
F6.51717573512225e-06
sVvalue
p2236
F0.0
sVunequal
p2237
F0.0
sVapposite
p2238
F2.31673019675157e-05
sVsturdy
p2239
F3.522601759561637e-05
sVmobile
p2240
F0.0
sVclear
p2241
F0.0003610902196365731
sVbecoming
p2242
F4.1165998544228934e-05
sVunreasonable
p2243
F0.0004316072475032722
sValtered
p2244
F2.105118342846046e-09
sVtraditional
p2245
F0.00010113954809504272
sVclean
p2246
F0.0003287244898209492
sVusual
p2247
F5.5791728933995746e-05
sVparticularly
p2248
F8.515046207782221e-05
sVblended
p2249
F2.3994039932387966e-06
sVscattered
p2250
F1.231086618108066e-05
sVfixated
p2251
F2.1631913144162637e-05
sVwell-placed
p2252
F5.9561501533005624e-08
sVinflexible
p2253
F2.3151567328307866e-05
sVco-operative
p2254
F7.828637215549232e-05
sVstoned
p2255
F7.898382868922474e-06
sVcarefully
p2256
F3.312239872239633e-05
sVexcessive
p2257
F0.0005413937330557967
sVdegraded
p2258
F1.231086618108066e-05
sVfine
p2259
F0.0029847438402933876
sVfind
p2260
F1.231086618108066e-05
sVdistressing
p2261
F0.0001435258023415696
sVgiant
p2262
F2.7396419729980905e-05
sVtime-sensitive
p2263
F1.8639160715830783e-05
sVnorthern
p2264
F0.0
sVparanoid
p2265
F3.672213330128674e-10
sVconvinced
p2266
F2.6998271013039763e-05
sVhope
p2267
F9.539888866686411e-06
sVgrotesque
p2268
F0.0005648883254459594
sVunhappy
p2269
F6.059114115848909e-05
sVidiots
p2270
F2.627234254635644e-05
sVpretty
p2271
F0.002998257291053122
sVinadvisable
p2272
F2.6194904654992866e-09
sVhip
p2273
F3.712240764908427e-05
sVintractable
p2274
F2.221778524433722e-05
sVlegible
p2275
F1.4669177331309725e-05
sVdominant
p2276
F0.00014009357204262542
sVall-powerful
p2277
F7.898382868922474e-06
sVhiv
p2278
F9.682626765304126e-06
sVdependent
p2279
F6.914454260542626e-05
sVluke
p2280
F1.2215905239196581e-05
sVsunny
p2281
F0.0005908134112281504
sVcheaper
p2282
F0.0003490203594904871
sVfamous
p2283
F5.0106081360335343e-05
sVout-dated
p2284
F3.305242411152447e-07
sVmieux
p2285
F0.0005449890169625814
sVshared
p2286
F4.3382574887870075e-05
sVselfevident
p2287
F2.6908356058236884e-05
sVinterminable
p2288
F6.15543309054033e-06
sVfrightening
p2289
F0.0004996148110136708
sVhim
p2290
F1.1533277775832524e-05
sVlegibly
p2291
F3.656462718590428e-06
sVadulthood
p2292
F1.207026316732502e-08
sVprogressive
p2293
F1.4774159904289079e-05
sVco-operate
p2294
F9.678073463094445e-06
sVwell-off
p2295
F3.350872787529686e-05
sVnegligeable
p2296
F2.0836584916548253e-05
sVunderlying
p2297
F1.867009484367357e-05
sVcommon
p2298
F0.0003382803850320509
sVnewest
p2299
F4.4667448236614076e-05
sVsustainable
p2300
F0.00030465122723531473
sVunfettered
p2301
F1.0323851094782516e-05
sVcourteous
p2302
F3.341792727307225e-10
sVrelentless
p2303
F1.1343323576092755e-05
sVinsane
p2304
F0.0016925179645275248
sVhousebroken
p2305
F1.7505569885326384e-05
sVset
p2306
F6.782432538395704e-06
sVtaken
p2307
F1.773911385060364e-11
sVcynical
p2308
F1.4774159904289079e-05
sVunpublished
p2309
F4.498084048555811e-06
sVpotent
p2310
F8.254691339391307e-05
sVplausible
p2311
F5.8192188223140864e-05
sVoverburdened
p2312
F0.0
sVindividual
p2313
F8.596410018599905e-06
sVdumb
p2314
F8.70153994141208e-05
sVgravest
p2315
F0.0001227763457655452
sVsafeguarded
p2316
F2.2918868798723967e-07
sVclose
p2317
F0.0002062304089814147
sVforthcoming
p2318
F6.784077019543225e-05
sVyouth
p2319
F0.0
sVbuilshit
p2320
F1.5092163963765226e-05
sVhorrid
p2321
F6.0831045495666365e-05
sVmuted
p2322
F2.0442140309180123e-06
sVforlorn
p2323
F0.00030766578111494246
sVcurrently
p2324
F1.7619781159059755e-05
sVmulti-threaded
p2325
F1.231086618108066e-05
sVdegrading
p2326
F5.070385163423066e-05
sVinterrelated
p2327
F0.00010974459643220627
sVvarious
p2328
F2.7909857205130642e-05
sVprobably
p2329
F1.884332692426432e-05
sVburned
p2330
F4.167193713590042e-06
sVnumerous
p2331
F0.0001307326454539153
sVberserk
p2332
F9.649913531142215e-05
sVprepped
p2333
F1.6477073901251252e-07
sVknowing
p2334
F3.1220679696492417e-06
sVmilder
p2335
F2.139461917179385e-05
sVkorea
p2336
F1.3018430257494825e-05
sVrecently
p2337
F2.031126799604912e-05
sVcomplementary
p2338
F8.450612961726508e-05
sVinitially
p2339
F0.0
sVmasterful
p2340
F0.0016453796081147233
sVsole
p2341
F3.855827337789093e-05
sVpoorer
p2342
F0.0037476991347762108
sVuntouched
p2343
F1.5965002489992774e-05
sVcounter-productive
p2344
F5.558743492261279e-06
sVsucceed
p2345
F1.0567623726659108e-05
sVrarer
p2346
F8.289771859770962e-05
sVcompetent
p2347
F8.619789898476986e-05
sVpissed
p2348
F0.00015547897612188172
sVbrillant
p2349
F0.000686783597600502
sVuseable
p2350
F1.9342554323228316e-05
sVimproved
p2351
F7.769414618137905e-05
sVabhorrent
p2352
F3.283269897781416e-05
sVinfluential
p2353
F1.6126222609201503e-10
sVrestful
p2354
F0.0
sVminus
p2355
F1.6867842406778153e-05
sVsensitive
p2356
F0.0001333614575457667
sVretarded
p2357
F0.00037326131482260354
sVlong-term
p2358
F9.685291486528094e-06
sVinteractive
p2359
F0.00011000990609554404
sVwhole
p2360
F3.071205567145352e-05
sVmind-boggling
p2361
F7.84245797186639e-05
sVliked
p2362
F1.1981953222705769e-10
sVlarge-scale
p2363
F0.0005823506568042146
sVsimple
p2364
F0.0004835236167793459
sVsweet
p2365
F0.004440958189505427
sVnortheastern
p2366
F1.2027048358619943e-05
sVrad
p2367
F0.0007950918058913268
sVwhatever
p2368
F0.0
sVleading
p2369
F4.1677753785047836e-05
sVnewborn
p2370
F1.2134249059513277e-08
sVless-favoured
p2371
F5.332965332824952e-11
sVsimply
p2372
F0.00021192455284423832
sVunsuccessful
p2373
F1.055497989845883e-05
sVoverambitious
p2374
F8.582484293899549e-07
sVsing
p2375
F1.231086618108066e-05
sVmissingg
p2376
F2.1914332414073733e-07
sVexpensive
p2377
F0.000182534295154898
sVstartling
p2378
F0.0004994442851768506
sVworthless
p2379
F6.412706025244339e-05
sVdescribed
p2380
F4.76571510984113e-05
sVinadmissible
p2381
F8.040059855064357e-05
sVmonthly
p2382
F5.701499059243802e-07
sVdamp
p2383
F2.0751555526934626e-10
sVunderage
p2384
F6.553280320560189e-05
sVpolitical
p2385
F7.378700059032575e-05
sVdue
p2386
F3.2718019968139935e-05
sVgoal-oriented
p2387
F0.0
sVreduction
p2388
F0.0
sVlucrative
p2389
F6.737894731728762e-05
sVsociable
p2390
F1.4539831580780525e-06
sVcontained
p2391
F7.117660792939294e-06
sVintrusive
p2392
F2.0785570414316175e-11
sVwidening
p2393
F2.2082657308269193e-10
sVempty
p2394
F0.00030803005264120405
sVvice-chairmen
p2395
F7.693841923422806e-06
sVfirm
p2396
F0.00012915952481366556
sVsweetheart
p2397
F6.762016164076802e-07
sVheaviest
p2398
F0.00012008800191536941
sVgay
p2399
F2.4621732362161296e-05
sVschizo
p2400
F8.000712664189979e-05
sVexempt
p2401
F9.346151618398643e-06
sVelse
p2402
F0.00010970617709260836
sVadaptable
p2403
F1.1080138479680746e-05
sVpricey
p2404
F5.47461512061243e-05
sVawake
p2405
F4.0106205316220485e-05
sVdisruptive
p2406
F0.0
sVsystematic
p2407
F1.100117268170557e-09
sVself-sustained
p2408
F6.51717573512225e-06
sVpresented
p2409
F1.231086618108066e-05
sVflashing
p2410
F0.0
sVintriguing
p2411
F0.00021563989343053428
sVhandling
p2412
F4.103622060360216e-06
sVuncertain
p2413
F8.456289139743511e-05
sVexponential
p2414
F0.0
sVsolid
p2415
F0.00011165893713346079
sVcircumneutral
p2416
F2.291443822944034e-07
sVstraight
p2417
F0.00017890114759509028
sVexpanded
p2418
F9.806814257125532e-06
sVhealthy
p2419
F0.0004589454532245397
sVfun
p2420
F0.002162002097394307
sVsombre
p2421
F9.902524362745391e-05
sVreal
p2422
F0.0002672978506048205
sVunitary
p2423
F3.0400021751895067e-06
sVcostly
p2424
F0.00015829162202316206
sVimpracticable
p2425
F1.4635947866608607e-05
sVenriching
p2426
F6.374223624817163e-06
sVguilty
p2427
F2.3178082792235313e-06
sVbinding
p2428
F1.3029873359856069e-05
sVherein
p2429
F3.161588373445633e-05
sVco-ownership
p2430
F3.729456754211795e-07
sVdisappointing
p2431
F6.279929671425067e-05
sVfrantic
p2432
F0.00047725905476139947
sVready
p2433
F0.007470368126484788
sVlacklustre
p2434
F6.598424404277833e-06
sVall-important
p2435
F4.633937816120503e-05
sVreai
p2436
F4.498972129396573e-05
sVunfit
p2437
F1.6165753031972467e-05
sVfunny
p2438
F0.000268866717893338
sVlengthy
p2439
F0.00015387712951680463
sVclerical
p2440
F4.3773264418087277e-07
sVtwofold
p2441
F7.898382868922474e-06
sVpresentable
p2442
F1.6856255092289668e-05
sVanymore
p2443
F0.00025616044380614197
sVbonnie
p2444
F8.898164889481656e-05
sVaccomplished
p2445
F6.552950356300537e-05
sVelevated
p2446
F4.9654223716630476e-05
sVshorter
p2447
F0.00024622058887871154
sVbenign
p2448
F0.00012554361481719118
sVwierd
p2449
F5.865165520736731e-05
sVresults-oriented
p2450
F2.3477501677556325e-06
sVreachable
p2451
F0.00035835765768952037
sVvirtually
p2452
F0.0005085202733737116
sVwidely
p2453
F9.062117188997823e-10
sVgrand
p2454
F0.0008947476615937983
sVlenient
p2455
F0.0001086677394378248
sVstrangers
p2456
F1.5228610622656797e-05
sVprerequisite
p2457
F9.352375875404332e-05
sVhigher
p2458
F0.00039312550511511827
sVpray
p2459
F6.7019802494951155e-06
sVused
p2460
F0.0004883159937174869
sVtemporary
p2461
F4.0714246884444065e-05
sVsomewhere
p2462
F6.752585693207482e-06
sVcomprehensive
p2463
F0.0003469493744738964
sVpainless
p2464
F1.695785504613912e-05
sVoverweight
p2465
F0.0
sVyesterday
p2466
F8.40414375442091e-06
sValert
p2467
F2.703218100085041e-05
sVhigh-tech
p2468
F4.32900449300336e-06
sVmoving
p2469
F1.8211232753725586e-10
sVappreciable
p2470
F0.00022842084411492202
sVpeachy
p2471
F7.207196874413526e-09
sVwholesome
p2472
F8.651346829264517e-06
sVprodigious
p2473
F7.682412334995588e-05
sVtimid
p2474
F0.00046497880719166226
sVinfamous
p2475
F6.379485477695765e-06
sVrecent
p2476
F7.372527324556705e-05
sVgrown-up
p2477
F3.4174543747106485e-05
sVlower
p2478
F0.00030997566357604967
sVpicky
p2479
F6.804998290476013e-05
sVolder
p2480
F0.0005059064449339272
sVtry
p2481
F0.00029036557325486713
sVenergy-efficient
p2482
F0.0
sVpersuasive
p2483
F1.642286701148903e-05
sVspent
p2484
F2.4345197032313454e-09
sVconcrete
p2485
F1.5109948613617149e-05
sVinter-related
p2486
F3.413851518367505e-05
sVinspirational
p2487
F5.795372992627491e-05
sVthoroughly
p2488
F2.962310824583505e-05
sVju
p2489
F1.6856255092289668e-05
sVweakest
p2490
F2.0005353013963658e-05
sVwell-timed
p2491
F0.0
sVsoaked
p2492
F2.051318591612161e-05
sVmigratory
p2493
F1.231086618108066e-05
sVprompt
p2494
F0.00010614724689220523
sVludicrous
p2495
F9.373291466893347e-05
sVnamed
p2496
F3.0291009539141014e-05
sVcompetitive
p2497
F7.921543010135515e-06
sVhigh-availability
p2498
F4.498084048555811e-06
sVdistracting
p2499
F2.6402749132940538e-05
sVinactive
p2500
F4.3895367492418324e-05
sVcomprehensively
p2501
F4.123819348850896e-06
sVirritable
p2502
F2.3696850245065202e-05
sVvigilant
p2503
F4.126265905492031e-05
sVspatially
p2504
F1.231086618108066e-05
sValternative
p2505
F0.00020929891840180045
sVpredominantly
p2506
F8.799465627655068e-06
sVprofitable
p2507
F0.00010703023708363502
sVsuperficial
p2508
F3.31664112162965e-05
sVioyal
p2509
F0.0
sVobservant
p2510
F0.0
sVinformal
p2511
F1.231086618108066e-05
sValternate
p2512
F1.2332312476600913e-05
sVguaranteed
p2513
F2.682423355923598e-05
sVrecommended
p2514
F1.1569516988795023e-08
sVco-ordinated
p2515
F3.390025463989508e-06
sVeager
p2516
F1.339252622958561e-05
sVbrand-new
p2517
F2.4326759198972424e-05
sVdeliberately
p2518
F0.0005888380682452472
sVtabled
p2519
F4.844768467232073e-06
sVcomprehensible
p2520
F6.837432557416481e-06
sVimpoverished
p2521
F1.4484619370579337e-05
sVexcited
p2522
F0.000860716197073298
sVsurprised
p2523
F0.0002566032047605635
sVuseless
p2524
F0.00015738863713214522
sVamended
p2525
F8.222729909016922e-09
sVlacking
p2526
F9.974093631396109e-05
sVbig
p2527
F0.0007727572439044432
sVdiscriminatory
p2528
F1.4774159904289079e-05
sVunlimited
p2529
F3.007512472665599e-06
sVself-sufficiency
p2530
F7.434491924670665e-06
sVshitty
p2531
F5.855927096939543e-05
sVculturally
p2532
F1.6140206489448923e-05
sVwiser
p2533
F0.00035076407074157047
sVnessessary
p2534
F2.4645498227719923e-05
sVentrenched
p2535
F5.338323725961366e-07
sVawaken
p2536
F0.0
sVformal
p2537
F4.2300835537096296e-05
sVpertinent
p2538
F0.00010992029637567428
sVsincerely
p2539
F9.045306094249926e-06
sVfollows
p2540
F1.5649428934757375e-10
sVincidental
p2541
F0.0002305525329921317
sVmulticultural
p2542
F6.500156953886724e-06
sVunrealistic
p2543
F0.0009062764507223945
sVmanifest
p2544
F3.634540503369341e-05
sVunstable
p2545
F1.4219590351547548e-05
sVwrecked
p2546
F6.246965505261161e-06
sVpopular
p2547
F7.212646270243643e-05
sVstylish
p2548
F4.806313790033793e-06
sVunendurable
p2549
F0.0
sVfoolish
p2550
F0.0005106475608770914
sVessential
p2551
F0.00028707555743880743
sVperpetual
p2552
F0.0
sVoften
p2553
F1.5257995983318477e-05
sVagreement
p2554
F8.188386959423859e-05
sVunremarkable
p2555
F3.0461844938012874e-06
sVfucking
p2556
F8.113104081153145e-05
sVobliged
p2557
F1.2343911364857344e-05
sVfake
p2558
F2.988907411879207e-05
sVmagnificent
p2559
F0.007628475969744273
sVgrass-roots
p2560
F8.362474823105744e-11
sVunderdeveloped
p2561
F1.0121023257985683e-06
sVunderstood
p2562
F3.560917195916325e-05
sVstrongest
p2563
F0.0006645671816237334
sVeconomic
p2564
F1.7105852649363474e-05
sVmighty
p2565
F3.4267097501036056e-05
sVaccelerating
p2566
F1.3326209350579782e-05
sVmideast
p2567
F3.4556636959916764e-06
sVgreener
p2568
F0.0006015270794642702
sVtrendy
p2569
F3.3474937068307964e-05
sVcurious
p2570
F0.00028419879762248514
sVpale
p2571
F1.231086618108066e-05
sVourselves
p2572
F9.045215642093541e-11
sVindigent
p2573
F6.598424404277833e-06
sVmomentary
p2574
F3.5458114748694525e-06
sVpronounced
p2575
F3.601035896784658e-05
sVdull
p2576
F1.5787914923149896e-05
sVproficient
p2577
F3.1887273507732563e-05
sVunspoiled
p2578
F4.3889714266108335e-05
sVper
p2579
F7.2145040552555584e-06
sVgermane
p2580
F1.9899882695711507e-05
sVbogus
p2581
F3.893027686379036e-05
sVfbl
p2582
F1.231086618108066e-05
sVstraightforward
p2583
F0.000689823886671004
sVminimal
p2584
F0.0002371922446195058
sVjumpy
p2585
F0.00013256091623153578
sVeverybody
p2586
F1.231086618108066e-05
sVvarying
p2587
F6.500091952967221e-11
sVcostlier
p2588
F6.890314363838966e-06
sVpatient
p2589
F1.231086618108066e-05
sVprocessing
p2590
F4.103622060360216e-06
sVperpendicular
p2591
F1.231086618108066e-05
sVpatentable
p2592
F0.0
sVchickenshit
p2593
F1.5092163963765226e-05
sVrestrictive
p2594
F8.402084167601228e-05
sVweil
p2595
F0.00022861969496981062
sVweii
p2596
F0.00033871031395573596
sVtherefore
p2597
F9.498569080953686e-06
sVintense
p2598
F0.0005904092916330546
sVhandled
p2599
F3.693259854324195e-05
sVdormant
p2600
F0.0
sVill-defined
p2601
F9.937213666294945e-07
sVcautious
p2602
F7.351418608656029e-05
sVsharper
p2603
F3.259447279554125e-05
sVdeserved
p2604
F1.4836838304878133e-05
sVstate-of-the-art
p2605
F7.319744918746672e-05
sVexaggerated
p2606
F7.75623023402295e-05
sVdisoriented
p2607
F1.7798524666464464e-05
sVin-depth
p2608
F6.68422516973081e-05
sVreduced
p2609
F6.372098862010628e-06
sVfrightful
p2610
F7.5703113249899e-05
sVself-executing
p2611
F7.90539208168239e-06
sVcomplimentary
p2612
F0.000724029280538603
sVshiny
p2613
F0.001523003266573887
sVyouthful
p2614
F5.493339116922892e-07
sVenlightening
p2615
F7.164576799345417e-05
sVcredible
p2616
F7.188412279733327e-05
sVshipshape
p2617
F6.552983120397009e-05
sVwell-organised
p2618
F2.2692274914666795e-05
sVabusive
p2619
F0.00014603898001196462
sVintegral
p2620
F5.0798841860444384e-05
sVnonsense
p2621
F0.00014409006798933276
sVawaited
p2622
F6.199962508281696e-05
sVappropriate
p2623
F0.0009503613833016726
sVprimarily
p2624
F8.799465627655068e-06
sVconscientious
p2625
F0.0
sVproportional
p2626
F1.2044318270296401e-05
sVdelusional
p2627
F0.00040011571176087885
sVunnerving
p2628
F1.2127844932126967e-08
sVcalming
p2629
F5.2340023647777953e-05
sVimpressed
p2630
F0.0009567072694687151
sVrobust
p2631
F0.0015809820785477717
sVinfuriating
p2632
F0.00047745809350833556
sVeleven
p2633
F5.701499059243802e-07
sVdismal
p2634
F3.718466407837474e-05
sVhands-on
p2635
F8.5947562601025e-06
sVbusiness-friendly
p2636
F4.5576217726693305e-06
sVquestion
p2637
F2.946084043579876e-06
sVpractice-oriented
p2638
F2.3477501677556325e-06
sVfast
p2639
F2.3854985253454592e-05
sVaccountability
p2640
F1.457400721909998e-06
sVconsultation
p2641
F2.478780896251166e-06
sVinfected
p2642
F9.785726772866634e-05
sVprettier
p2643
F0.001152287095126418
sVconceivable
p2644
F2.061267743662946e-05
sVbored
p2645
F2.2842384080815437e-05
sVnewsworthy
p2646
F7.636702384632816e-07
sVwell-organized
p2647
F2.6951967471481536e-05
sVconsiderably
p2648
F0.00015281938224356143
sVforeverything
p2649
F2.9721411180009172e-05
sVperplexing
p2650
F6.814267918856619e-06
sVelsewhere
p2651
F2.771840974747687e-05
sVrelaxed
p2652
F8.861098817590788e-05
sVaudacious
p2653
F0.0001632194421585096
sVapplicable
p2654
F3.439378763775344e-05
sVunheard-of
p2655
F0.00011239340859914602
sVarchaic
p2656
F3.305242411152447e-07
sVproperly
p2657
F0.0001476443986604414
sVmajeure
p2658
F0.00022474710270984296
sVnewer
p2659
F6.164406371429154e-05
sVfiled
p2660
F1.4251113132140698e-05
sVupright
p2661
F2.672780216699617e-05
sVconsiderable
p2662
F0.0010592439139410906
sVinfo
p2663
F5.048538646932513e-11
sVcharmed
p2664
F5.606504300825508e-05
sVinhumane
p2665
F1.1252206519290934e-06
sVup
p2666
F5.108393879228832e-06
sVus
p2667
F5.5165383768126454e-05
sVgratifying
p2668
F0.00012733713752352462
sVdickish
p2669
F1.6856255092289668e-05
sVaccustomed
p2670
F7.5776454159998e-06
sVmature
p2671
F0.00020145162401500902
sVsuitable
p2672
F0.00021183003439260387
sVheterogeneous
p2673
F3.250078476618351e-11
sVexport
p2674
F0.0
sVautonomous
p2675
F1.3952313165619143e-05
sVloving
p2676
F0.0
sVsimilar
p2677
F0.00020827179875085715
sVcalled
p2678
F2.8171711303657493e-05
sVsunnier
p2679
F4.1125606428611724e-05
sVawestruck
p2680
F0.0004412700787288325
sVdevastating
p2681
F0.0001195893943065626
sVassociated
p2682
F1.4360374872484354e-05
sVworthwhile
p2683
F0.00035983583601511936
sVmindful
p2684
F1.1866267161625933e-05
sVdefined
p2685
F5.3952582249140274e-05
sVdemeaning
p2686
F1.0499857282023306e-05
sVunsafe
p2687
F1.7863935589534043e-05
sVinterwoven
p2688
F1.0716666176089077e-05
sVlye
p2689
F8.860353071898034e-06
sVconsulted
p2690
F4.204010011279529e-07
sVdiverse
p2691
F0.00011817765078408357
sVevening
p2692
F9.165878142254689e-06
sVunwise
p2693
F8.883879349719859e-05
sVgraceful
p2694
F1.8876548816991046e-05
sVsteeper
p2695
F8.999555182060907e-06
sVre-established
p2696
F4.4400606829583445e-06
sVactionable
p2697
F1.2795884360935411e-05
sVpredictability
p2698
F2.5092125094407912e-05
sVdivine
p2699
F4.11258805947562e-05
sVpuzzling
p2700
F0.00045367149104228973
sVtentative
p2701
F1.5794442976083686e-05
sVmalicious
p2702
F1.2265720776793006e-05
sVcohesive
p2703
F1.7638763167490753e-05
sVinvalid
p2704
F3.1343970643828674e-05
sVdemocratically
p2705
F1.083451160003918e-05
sVunjustifiable
p2706
F6.10287678397125e-05
sVrealisable
p2707
F2.1032498510406242e-05
sVnice
p2708
F0.0036974079612064224
sVenergetic
p2709
F1.1334772108499292e-05
sVsmitten
p2710
F8.015825603301582e-05
sVlucid
p2711
F1.5996643238718556e-05
sVlong-lasting
p2712
F3.30964662670292e-05
sVprepared
p2713
F0.18418821897555337
sVtreatable
p2714
F4.30056631221533e-06
sVgenerated
p2715
F4.08827104504746e-06
sVbad-ass
p2716
F3.712270462418765e-05
sVago
p2717
F1.13545801044716e-10
sVfurthest
p2718
F5.048622789019438e-06
sVtailored
p2719
F4.902112660779825e-10
sVhappier
p2720
F0.00025300107983067954
sVpractically
p2721
F0.0005581633100671565
sVnon-discriminatory
p2722
F0.0
sVsounder
p2723
F3.791852916596223e-05
sVappalling
p2724
F0.0004541614272444411
sVimpatient
p2725
F5.533220434017396e-05
sVlogical
p2726
F6.73772211433841e-05
sValigned
p2727
F1.7460520307704308e-06
sVenrolled
p2728
F2.9498662739432556e-10
sVignorant
p2729
F3.308837415713525e-05
sVnice-looking
p2730
F2.9956779464344563e-05
sVintentional
p2731
F0.000507841434364097
sVmodernizing
p2732
F8.650833295649953e-07
sVpartial
p2733
F3.8268669039075246e-05
sVashamed
p2734
F3.232743351452129e-05
sVissued
p2735
F1.1057288941228622e-05
sVexisting
p2736
F3.4188404338012696e-05
sVenjoyable
p2737
F0.0003106849585387581
sVsofter
p2738
F5.545325162918517e-06
sVbroader
p2739
F0.00029777207848094746
sVdainty
p2740
F0.0002361495865135993
sVintricate
p2741
F6.6437206824042065e-06
sVhumid
p2742
F2.8726033478965703e-05
sVpsycho
p2743
F0.00020135625962764396
sVwell-targeted
p2744
F1.6328144758244334e-06
sVworrisome
p2745
F4.140177156431884e-05
sVcompact
p2746
F0.0
sVgraver
p2747
F3.360940061202079e-05
sVlongstanding
p2748
F5.7240285215249345e-06
sVdisposal
p2749
F4.103622060360216e-06
sVconcerned
p2750
F3.556959528805576e-05
sVfried
p2751
F2.665757453907289e-06
sVyoung
p2752
F3.4524273510678397e-06
sVgovernment-owned
p2753
F5.528012615248346e-06
sVintensive
p2754
F0.0001073671910531389
sVmulti-layered
p2755
F1.3288792684113218e-06
sVobstinate
p2756
F3.008992968269615e-05
sVexcluded
p2757
F4.986268001432503e-06
sVstable
p2758
F6.000614094536908e-05
sVexpeditious
p2759
F0.00011610420880805974
sVfatal
p2760
F0.0009196251999951941
sVfriendly
p2761
F0.00045136064716913874
sVscarlett
p2762
F1.2216073800061895e-05
sVinter-dependent
p2763
F3.1878197614755325e-05
sVvirtuous
p2764
F9.719513693290511e-05
sVwished
p2765
F0.0021681120333462813
sVpresently
p2766
F1.7619758669089328e-05
sVsusceptible
p2767
F2.459615900765355e-05
sVunhurt
p2768
F3.791852916596223e-05
sVcelebrities
p2769
F2.6760957291893228e-05
sVdisquieting
p2770
F5.082831116231173e-05
sVwell-done
p2771
F0.0006229346928143676
sVpopulous
p2772
F1.1838161270374997e-05
sVimplausible
p2773
F3.766767295662087e-05
sVcontinued
p2774
F1.2152266127595657e-05
sVedible
p2775
F4.8904705664434075e-06
sVtimely
p2776
F0.0001081436090454545
sVseverely
p2777
F1.570657415622801e-05
sVmagic
p2778
F5.6728728895955265e-08
sVrespectful
p2779
F6.360115249618833e-05
sVstiff
p2780
F6.678293074426977e-05
sVcompassionate
p2781
F0.0
sVfewer
p2782
F0.00012797827428285581
sV'sgoing
p2783
F3.4035890546903536e-05
sVgullible
p2784
F8.028719198729839e-06
sVbrutal
p2785
F0.0002720168031761539
sVrace
p2786
F0.00026896256954171433
sVbusier
p2787
F5.296454515873561e-06
sVreyes-torrena
p2788
F0.0
sVco-financing
p2789
F3.077716545270165e-06
sVtrite
p2790
F1.5582985044713713e-06
sVmanifestly
p2791
F3.3195702949169796e-05
sVsedentary
p2792
F6.0272408375373e-06
sVnoted
p2793
F3.899604253919998e-05
sVconcluded
p2794
F1.6501012579062102e-06
sVsomeday
p2795
F1.231086618108066e-05
sVsmaller
p2796
F0.00026247548817527556
sVmalignant
p2797
F5.879395132300677e-05
sVunprofitable
p2798
F2.298752410578188e-05
sVjump
p2799
F3.746510187452748e-09
sVegocentric
p2800
F2.1362144668949735e-06
sVuncomfortable
p2801
F0.0002753337884435906
sVunattractive
p2802
F3.8482094038136173e-05
sVodd
p2803
F0.0007942628618095322
sV-just
p2804
F1.9484133123962427e-05
sVscientific
p2805
F3.2921873735766217e-06
sVhourly
p2806
F1.231086618108066e-05
sVunavailable
p2807
F0.00039751665229386193
sVjunior
p2808
F9.90114550676825e-10
sVmarketed
p2809
F4.498084048555811e-06
sVexpressed
p2810
F7.420624797022605e-06
sVoverwhelmed
p2811
F0.00013916341959237038
sVunhelpful
p2812
F5.0795193782415445e-05
sVrotten
p2813
F0.0005591860412175676
sVindian
p2814
F1.231086618108066e-05
sVvolatile
p2815
F8.613503068979045e-05
sVpolluting
p2816
F9.6898799291807e-05
sVindustrialized
p2817
F1.7200142052892524e-11
sVpristine
p2818
F6.552983120397009e-05
sVimplementable
p2819
F0.0
sVjustification
p2820
F1.0676261270631888e-05
sVcozy
p2821
F0.00014015960704841192
sVstrained
p2822
F6.233366832764041e-06
sVsobering
p2823
F7.147644424663002e-05
sVcommercial
p2824
F4.498084048555811e-06
sVconsideration
p2825
F1.231086618108066e-05
sVnonexistent
p2826
F5.991879429140723e-05
sVyoungest
p2827
F2.8625524724159405e-06
sVdesired
p2828
F0.002168136700466671
sVfocused
p2829
F1.1678905149233486e-05
sVothers
p2830
F2.5478046013170042e-05
sVsexy
p2831
F0.0004650145385165478
sVsafer
p2832
F8.525609186839726e-05
sVfifteen
p2833
F5.701499059243802e-07
sVirritating
p2834
F2.4292517990434774e-08
sVextreme
p2835
F6.330327707659874e-05
sVstellar
p2836
F0.0004468103138270551
sVgreat
p2837
F0.005618886392858514
sVlosin
p2838
F2.6748223952700826e-06
sVbroken
p2839
F1.231086618108066e-05
sVtechnical
p2840
F8.3816741242374e-06
sVinvolved
p2841
F2.0165415167574013e-05
sVlarger
p2842
F0.0010117351282349363
sVunconditional
p2843
F5.581021222144603e-05
sVnervous
p2844
F0.0002826428826860484
sVprincipally
p2845
F8.799465627655068e-06
sVdisconcerting
p2846
F4.729465226844728e-05
sVcommendable
p2847
F0.0008202023243986818
sVup-to-date
p2848
F1.5445155115838345e-05
sVpanicked
p2849
F0.00015063430584794018
sVasinine
p2850
F3.8074186777338294e-05
sVdanger
p2851
F3.435953263642784e-06
sVclare
p2852
F9.937213666294945e-07
sVwin
p2853
F1.231086618108066e-05
sVlimp
p2854
F3.476332787317756e-09
sVworthy
p2855
F0.0004737534124076625
sVclara
p2856
F4.628767607454245e-06
sVcrazy
p2857
F0.0015135875535287073
sVprivate
p2858
F2.3367233228535394e-05
sVsacrilegious
p2859
F5.353517803194484e-05
sVimprobable
p2860
F1.230915543350475e-05
sVstupider
p2861
F2.9020394436045437e-05
sVstanding
p2862
F1.661014304774916e-05
sVuse
p2863
F0.0002679283417234794
sVsadder
p2864
F8.545494331272934e-10
sVe.g.
p2865
F2.836976560532511e-06
sVillegal
p2866
F0.00015734841564009856
sVreadable
p2867
F3.6573658386007262e-06
sVseamless
p2868
F8.002123849000908e-06
sVnext
p2869
F1.619242803629334e-05
sVfew
p2870
F0.0004585738499036212
sVdoubt
p2871
F1.7795709144572238e-10
sVsubsidized
p2872
F0.0
sVagreeable
p2873
F9.472002940430263e-05
sVexhaustive
p2874
F7.030555549663964e-05
sVnoisy
p2875
F9.527702563867638e-06
sVwell-reputed
p2876
F0.0
sVindefensible
p2877
F0.00018615744029077498
sVclever
p2878
F0.0008032568851573967
sVbabe
p2879
F1.3143633065307134e-08
sVdysfunctional
p2880
F8.374133712527629e-05
sVsorr
p2881
F0.00013954630781801554
sVcost-efficient
p2882
F4.5270092059654826e-05
sVstarted
p2883
F0.0013405265622686824
sVrarest
p2884
F2.275154432523607e-05
sVvisibility
p2885
F4.386630470995507e-06
sVcharming
p2886
F0.0009961842898770733
sVsore
p2887
F0.00010212649471174906
sVtransient
p2888
F6.204487055122523e-06
sVfaultless
p2889
F0.0003205697582335181
sVcentral
p2890
F0.0001146516039055862
sVunforgiving
p2891
F4.14926602962576e-06
sVappointed
p2892
F1.1166738944354663e-05
sVgrim
p2893
F0.00014841164130185826
sVuncontroversial
p2894
F1.7065461490696437e-05
sVdisingenuous
p2895
F2.5888188938088912e-05
sVintegrating
p2896
F3.0400021751895067e-06
sVthis
p2897
F0.0001831338853119591
sValia
p2898
F0.0
sVanywhere
p2899
F7.2145040552555584e-06
sVobvious
p2900
F0.0003267798084503418
sVthin
p2901
F2.7261043170340202e-05
sVindustrial
p2902
F0.0
sV-lnteresting
p2903
F2.1623876890733548e-05
sVperformed
p2904
F6.238947574381093e-06
sVindisposed
p2905
F3.407856526065029e-05
sVweaker
p2906
F0.0001889328267132965
sVproprietary
p2907
F2.772349668659976e-06
sVthirsty
p2908
F7.594498144528476e-06
sVslim
p2909
F4.344041554027346e-05
sVloco
p2910
F0.00011696153518664958
sVhigh
p2911
F0.0011382692354152497
sVeffectively
p2912
F0.00013717846217898926
sVapplication
p2913
F9.897770511608885e-07
sVsomething
p2914
F4.135457341193127e-05
sVwonderful
p2915
F0.02464840325630443
sVexpandable
p2916
F0.0
sVcowardly
p2917
F1.231086618108066e-05
sVtan
p2918
F5.700290117858155e-05
sVupstanding
p2919
F4.3805912159765274e-05
sVpsyched
p2920
F0.00010180434638393265
sVeducational
p2921
F0.00018507905466139238
sVwell-founded
p2922
F5.093500729948141e-05
sVvaried
p2923
F1.4631621946039252e-05
sVfriendlier
p2924
F3.851197881136886e-05
sVlame
p2925
F0.00017197298052760223
sVbuoyant
p2926
F3.544706700666363e-05
sVjustifiable
p2927
F2.551497259696229e-05
sVneurotic
p2928
F1.538665638279294e-05
sVdelay
p2929
F9.165923970728793e-06
sVwell-respected
p2930
F4.3739594293038376e-06
sVinstead
p2931
F9.640049535562198e-06
sVthin-skinned
p2932
F2.3994039932387966e-06
sVcounterfeit
p2933
F4.2443480124409685e-05
sVestablishment
p2934
F1.9695236486794735e-06
sVabrasive
p2935
F2.292008613098552e-07
sVoverridden
p2936
F1.5788906032082542e-06
sVsir
p2937
F0.0016274088002397418
sV-surprised
p2938
F0.0
sVfactored
p2939
F3.0400021751895067e-06
sVfluid
p2940
F5.873986074074536e-06
sVpermanent
p2941
F2.5865458876196654e-05
sVseropositive
p2942
F9.682675177469672e-06
sVlegality
p2943
F1.6456402164353248e-08
sVinsufficient
p2944
F0.0006680624435018217
sVcabbage
p2945
F7.038678349249082e-05
sViate
p2946
F9.165954523555104e-06
sVsolidarity
p2947
F4.42216690425327e-06
sVunforeseeable
p2948
F1.8008586698541455e-05
sVnon-transparent
p2949
F8.002070502752471e-06
sVdefective
p2950
F1.332193021838171e-05
sVlight
p2951
F0.00042793336964885273
sVcounter
p2952
F2.3623482491000018e-05
sVarduous
p2953
F5.6862611315033044e-05
sVredundant
p2954
F9.334345568039021e-05
sVclaire
p2955
F4.179087075699379e-06
sVcrazed
p2956
F0.0001304518145826396
sVsix-year
p2957
F5.701499059243802e-07
sVclassy
p2958
F3.3474937068307964e-05
sVwell-managed
p2959
F3.798900748946057e-06
sVsecured
p2960
F7.128276664533995e-06
sVfastest
p2961
F6.524719981292789e-05
sVunsolved
p2962
F0.00014909926501958882
sVrusted
p2963
F9.84757245787222e-06
sVcreation
p2964
F1.9695236486794735e-06
sVnon-exclusive
p2965
F7.099020080687804e-06
sVever-changing
p2966
F9.683593707950075e-06
sVin-house
p2967
F2.963396721836857e-06
sVmove
p2968
F0.00026896256954171433
sVfacilitated
p2969
F0.0
sVmeager
p2970
F0.00011933749079747062
sVstatutory
p2971
F5.699537513837903e-05
sVwhilst
p2972
F2.836976560532511e-06
sVstimulating
p2973
F2.736498569440064e-05
sVflattering
p2974
F0.0006792823098963762
sVfertile
p2975
F6.374223624817163e-06
sVunquestionable
p2976
F7.586544102755998e-06
sVhappiest
p2977
F8.818589918131275e-06
sVoperative
p2978
F1.7865861604903355e-06
sVcontaminated
p2979
F0.0
sVperfect
p2980
F0.0029288664513658124
sVsuperior
p2981
F8.00656801665637e-05
sVmulti-dimensional
p2982
F1.231086618108066e-05
sVcontemplated
p2983
F8.290155190359153e-06
sVgoodto
p2984
F5.935824628465787e-06
sVchosen
p2985
F9.639953136030876e-11
sVchoosy
p2986
F4.0912246409409963e-05
sVwinning
p2987
F1.231086618108066e-05
sVmental
p2988
F0.00026869569616518296
sVwilling
p2989
F0.02338474757838064
sVpilot-tested
p2990
F1.554336362591064e-05
sVcriminal
p2991
F3.517554226610308e-05
sVpending
p2992
F0.0001622209569984657
sVpure
p2993
F3.0267684700614782e-05
sVbolder
p2994
F0.00015512629715910958
sVmaterial
p2995
F6.533480851935668e-05
sVcommended
p2996
F1.490932039424526e-09
sVcommitment
p2997
F4.3773264418087277e-07
sVheavy-handed
p2998
F2.1490430661978497e-05
sVstout
p2999
F4.5299093708794326e-05
sVapolitical
p3000
F0.0
sVimpaired
p3001
F6.40815158816818e-07
sVdocumented
p3002
F5.305839364861833e-06
sVhandy
p3003
F0.0001401873691437335
sVfragmented
p3004
F1.231086618108066e-05
sVcrass
p3005
F1.5820661177383057e-05
sVtransitional
p3006
F3.5458114748694525e-06
sVprofound
p3007
F0.0001540650576083673
sVintelligent
p3008
F0.00015815850488565256
sVradiant
p3009
F4.1125606428611724e-05
sVwell-tolerated
p3010
F1.231086618108066e-05
sVunpredictable
p3011
F4.979174869656982e-05
sVdelightful
p3012
F0.002353178241616883
sVtruth
p3013
F1.6856255092289668e-05
sVshaking
p3014
F0.00011459888048666402
sVexpressly
p3015
F3.63502806604793e-06
sVexperienced
p3016
F5.815863931770897e-05
sVprevailing
p3017
F4.033831294955836e-05
sVdoing
p3018
F1.231086618108066e-05
sVtepid
p3019
F1.0392198074458363e-05
sVmet
p3020
F0.00020272508151766074
sVsecretive
p3021
F1.6924855920469357e-05
sVrelated
p3022
F5.978139172231652e-05
sVaggravated
p3023
F4.8532449537639164e-05
sVstatic
p3024
F2.4794056223607313e-05
sVthirteen
p3025
F0.0
sVspecial
p3026
F0.0013200468516801353
sVout
p3027
F5.5723700361590676e-08
sVmid-
p3028
F1.688651886591939e-05
sVlukewarm
p3029
F4.141164149518314e-05
sVtwice
p3030
F4.90251588805602e-06
sVundemocratic
p3031
F1.083451160003918e-05
sVshallow
p3032
F2.400496825283936e-05
sVsingular
p3033
F2.8430497992438824e-05
sVunlawful
p3034
F9.553031159139147e-05
sVenforceable
p3035
F8.054475215610395e-05
sVwholly
p3036
F1.754146374217437e-05
sVoriental
p3037
F4.5970594534288085e-06
sVwondrous
p3038
F0.0012403203742716025
sVhilarious
p3039
F0.0018890091694947072
sVunprepared
p3040
F0.018867212958069073
sVhonorable
p3041
F6.640804106227476e-05
sVadaptive
p3042
F7.713949561844129e-07
sVintegrated
p3043
F4.8997236049493623e-05
sVannounced
p3044
F6.720196706616538e-06
sVtrashy
p3045
F5.933419132833461e-06
sVfrank
p3046
F3.738883765478098e-05
sVstepped-up
p3047
F9.188735674949119e-05
sVhumiliating
p3048
F4.658545012209554e-05
sVincalculable
p3049
F3.276580856901246e-05
sVgreedy
p3050
F5.6673077872931584e-05
sVpromptly
p3051
F8.869474281354061e-06
sVfourteen
p3052
F0.0
sVclarify
p3053
F1.4861040459059755e-05
sVcompletely
p3054
F4.7636857313368736e-05
sVsurely
p3055
F1.5257995983318477e-05
sVtied
p3056
F2.080662387478326e-05
sVearly
p3057
F2.910054264435215e-05
sVapt
p3058
F3.636781562225223e-05
sVmoody
p3059
F4.164909788894469e-06
sVimpulsive
p3060
F0.0
sVprincess
p3061
F1.685608653142442e-10
sVshortest
p3062
F2.6586519419034992e-06
sVtwo-pronged
p3063
F7.898382868922474e-06
sVorganic
p3064
F5.9227214936134883e-05
sVhostile
p3065
F6.856726502092925e-07
sVdetermining
p3066
F1.765986300043241e-05
sVbetter-educated
p3067
F2.5426456695428316e-06
sVdiminished
p3068
F7.936429400923572e-06
sVfeasible
p3069
F0.00017294240190220435
sVchilly
p3070
F0.00010540108975375041
sVmortal
p3071
F0.0
sVtimed
p3072
F4.2046121663566306e-11
sVretail
p3073
F4.30056631221533e-06
sVcomprende
p3074
F1.0131984770441744e-06
sVsouth
p3075
F7.15498655882836e-06
sVmad
p3076
F0.0010376724518920974
sVfledged
p3077
F1.0009599891551387e-05
sVdistracted
p3078
F9.936367371184756e-05
sVswifter
p3079
F6.833900765120383e-05
sVpowerful
p3080
F0.00047386455077472715
sVowned
p3081
F3.0714368535430613e-06
sVsoothing
p3082
F0.0
sVembarrassed
p3083
F8.900092248250311e-05
sVsuch
p3084
F1.5258072271772565e-05
sVstarker
p3085
F2.185778978447892e-06
sVprecisely
p3086
F5.103087685140497e-06
sVquality
p3087
F1.4558850039953203e-05
sVendemic
p3088
F1.966509431707723e-05
sVopportune
p3089
F6.99291644188089e-05
sVfella
p3090
F1.231086618108066e-05
sVancient
p3091
F3.2423622475124097e-09
sVsadly
p3092
F4.4400606829583445e-06
sVfair
p3093
F0.0003799413662464681
sVstrict
p3094
F0.00011515108546396865
sVnon-partisan
p3095
F2.784102052866294e-07
sVunknown
p3096
F8.718280535337609e-05
sVdurable
p3097
F1.0478549886424608e-05
sVvulgar
p3098
F5.933419132833461e-06
sVopening-up
p3099
F1.8291025138802442e-05
sVadopted
p3100
F2.8244518835724116e-06
sVlamentable
p3101
F4.203450336831906e-05
sVimmovable
p3102
F1.231086618108066e-05
sVintermediate
p3103
F0.00016786575985364396
sVinalienable
p3104
F3.490026033269291e-05
sVscant
p3105
F4.115236217598928e-05
sVperfectly
p3106
F4.685911631615143e-05
sVfairest
p3107
F5.38007169531655e-05
sVpainful
p3108
F0.00019871076457487013
sVfutile
p3109
F8.740489948760981e-05
sVpervasive
p3110
F0.0001409447018094601
sVunder-inclusive
p3111
F2.6801099546461467e-05
sVco-dependent
p3112
F3.1878243507906e-05
sVchallenging
p3113
F0.00013531670456060275
sVambiguous
p3114
F8.009194174312989e-05
sVin-progress
p3115
F1.3121691978876863e-05
sVreversed
p3116
F1.046879581428857e-05
sVunoccupied
p3117
F2.7583985314943676e-05
sVapologise
p3118
F5.018184974412889e-06
sVself-sustaining
p3119
F0.00010430589021578402
sVdepressing
p3120
F2.3262337552335962e-05
sVenvironmental
p3121
F7.860843577300885e-05
sVabsent-minded
p3122
F7.954207400549936e-06
sVdynamite
p3123
F0.0016351683697717917
sVinterestedin
p3124
F3.4536264321099645e-05
sVinestimable
p3125
F4.156527419666753e-05
sVoverwhelming
p3126
F0.0012482821281626505
sVastounded
p3127
F3.4794934083902185e-05
sVdiscretionary
p3128
F0.0
sVupdating
p3129
F5.065396699266853e-06
sVglamorous
p3130
F9.847562640083287e-06
sVdandy
p3131
F2.8825468547271304e-09
sVegregious
p3132
F4.4680810034917044e-05
sVobjectionable
p3133
F1.734863212020446e-05
sVboring
p3134
F0.00028325382148530016
sVcoast
p3135
F1.2026928089339098e-10
sVwell-established
p3136
F1.3323964585908407e-05
sVsubmitted
p3137
F3.006400934131845e-11
sVappealing
p3138
F3.629205085322294e-05
sVexclusive
p3139
F6.251080046586085e-05
sVcircumspect
p3140
F4.267442355665757e-06
sVidentical
p3141
F4.659174932948113e-05
sVbare
p3142
F4.909452335199018e-05
sVstricter
p3143
F6.141490399841714e-05
sVundamaged
p3144
F1.5965002489992774e-05
sVsteep
p3145
F0.0
sVdistinguished
p3146
F3.392783504613314e-08
sVdrunk
p3147
F1.231086618108066e-05
sVbeter
p3148
F9.640049535562198e-06
sVfalse
p3149
F5.021577392654356e-05
sVpoverty-stricken
p3150
F5.161901055347687e-06
sVunchanged
p3151
F0.00017435152191745755
sVreassuring
p3152
F4.83095247156843e-05
sVtransitory
p3153
F3.5458351132190243e-06
sVgentle
p3154
F0.000192950933398486
sVthereto
p3155
F9.640049535562198e-06
sVpitiable
p3156
F1.3016960627898248e-05
sVunlikely
p3157
F4.097205408399304e-05
sVmiserable
p3158
F0.00025038410194142517
sVneed
p3159
F2.340268107817314e-05
sVrepresentativeness
p3160
F2.9980445059228555e-08
sVconstrained
p3161
F3.0075325224149094e-06
sVstillborn
p3162
F8.689455270813447e-06
sVclearly
p3163
F1.9036645417012317e-05
sVvis-
p3164
F1.6495985023758079e-06
sVunbearable
p3165
F2.7594172545926708e-05
sVbastard
p3166
F0.0
sVafraid
p3167
F6.577240898218085e-05
sVlightweight
p3168
F0.00012266303321116446
sVable
p3169
F9.437098553348073e-05
sVaccelerated
p3170
F8.634732377577301e-06
sVcross-border
p3171
F0.0
sVpivotal
p3172
F0.00012611430439079106
sVasshole
p3173
F2.1456125478380533e-06
sVseductive
p3174
F3.73621367647753e-05
sVcompetence
p3175
F1.554336362591064e-05
sVdeader
p3176
F8.689455270813447e-06
sVaccuracy
p3177
F0.0
sVpatchy
p3178
F2.5783492420453417e-06
sVtonight
p3179
F0.0
sVaxiomatic
p3180
F5.182846114106846e-05
sVdo-able
p3181
F9.941026347077516e-06
sVharmful
p3182
F6.505700046359077e-05
sVfurious
p3183
F0.00010459940344528347
sVconnected
p3184
F1.9454202880121367e-05
sVpreliminary
p3185
F3.5458114748694525e-06
sValarmed
p3186
F8.378695554436527e-05
sVwhy
p3187
F1.685636746545253e-05
sVprobable
p3188
F2.2935680537469906e-05
sVso-called
p3189
F7.82007154635728e-06
sVrefreshing
p3190
F0.00023624974476896805
sVundeniable
p3191
F1.8122670997884253e-05
sVenthusiastic
p3192
F7.093465116130095e-05
sVupset
p3193
F0.00023183058934258993
sVrepeated
p3194
F7.322798498892333e-06
sVreconcilable
p3195
F2.0126767085456044e-06
sVastonishing
p3196
F0.0016980945740632505
sVabsurd
p3197
F7.082360606693185e-05
sVmechanical
p3198
F1.231086618108066e-05
sVwounded
p3199
F5.754744300458942e-06
sVskinny
p3200
F3.8927726443753515e-05
sVtypical
p3201
F0.00021146884446816524
sVnormally
p3202
F7.4470894732635234e-06
sVemerging
p3203
F7.72263237429883e-06
sVioaded
p3204
F7.292885239021603e-06
sVreprehensible
p3205
F2.6012536799505085e-05
sVannually
p3206
F1.2068532745860975e-08
sVagreed
p3207
F4.1832467260750696e-05
sVsupported
p3208
F0.00018516705728180132
sVwoolly
p3209
F0.0
sVanyway
p3210
F7.213908671830691e-06
sVunfathomable
p3211
F6.814267918856619e-06
sVsouth-east
p3212
F3.4556636959916764e-06
sVplanning
p3213
F8.290155190359153e-06
sVunreliable
p3214
F9.111477037373989e-05
sVtelling
p3215
F2.368442223198312e-06
sVcareful
p3216
F0.0004093006611910121
sVdarkest
p3217
F0.0
sVtrivial
p3218
F0.0001733030731751196
sVpleased
p3219
F0.0002202071048974133
sVprincipal
p3220
F0.0003681175530679659
sVloveable
p3221
F0.00037670443799814795
sVinspiring
p3222
F4.30271073956115e-05
sVholistic
p3223
F1.9489048538155282e-05
sVbased
p3224
F7.719324961444571e-05
sVnaturalistic
p3225
F4.5485935885235746e-05
sVhopeful
p3226
F5.517773521514089e-06
sVrash
p3227
F4.0756221383033854e-05
sVoperational
p3228
F2.0867518460006045e-05
sVbrighter
p3229
F0.0017951601554326885
sVsmallest
p3230
F0.0009516990173167897
sVhouse-trained
p3231
F1.7505525615317888e-05
sVgirlie
p3232
F3.3646032119405105e-06
sVhandsome
p3233
F0.0026082853052908908
sVvice-chairman
p3234
F1.5387810737112715e-05
sVinferior
p3235
F0.0002330201547470427
sVdemonstrated
p3236
F3.63502806604793e-06
sVregularly
p3237
F2.9277475198637544e-05
sVrighteousness
p3238
F1.6856255092289668e-05
sVexceptional
p3239
F0.0004251881736913681
sVfamiliar
p3240
F3.985649224851177e-05
sVdope
p3241
F7.038607963169478e-10
sVcranky
p3242
F1.6414496068478805e-05
sVlucky
p3243
F0.0002812354347488956
sVmum
p3244
F5.558701802625906e-06
sVlegitimate
p3245
F4.883126035554755e-05
sVaforementioned
p3246
F4.228442229603711e-05
sVdistraught
p3247
F1.9067399359945533e-05
sVself-evident
p3248
F7.661825182690921e-05
sVunjustified
p3249
F9.78890416510707e-05
sVdodgy
p3250
F2.3994039932387966e-06
sVnearly
p3251
F0.0005000189465318467
sVfollowing
p3252
F1.8372887882356155e-05
sVcontemptible
p3253
F1.045034052494875e-06
sVended
p3254
F7.21454012705437e-06
sVshy
p3255
F0.00016671006851743536
sVmarried
p3256
F5.62778690885302e-08
sVself-financing
p3257
F7.106840386371102e-05
sVaffluent
p3258
F1.3786432400084057e-05
sVhollow
p3259
F5.1018197088568154e-05
sVyellow
p3260
F6.1412036150438745e-06
sVstreamlined
p3261
F6.614201912114819e-05
sVwish
p3262
F0.0021681120333462813
sVunfeasible
p3263
F3.83796774846241e-06
sVuniformed
p3264
F8.437276649036355e-06
sVtruer
p3265
F6.85009523609264e-05
sVstrengthened
p3266
F0.000301462321393702
sVuntrue
p3267
F7.748718335880668e-05
sVdeterminative
p3268
F2.141008830801946e-05
sVacquired
p3269
F1.2819049762839138e-06
sVcatastrophic
p3270
F1.01997520883822e-05
sVhither
p3271
F1.1590275020294741e-05
sVheeded
p3272
F0.0
sVturbulent
p3273
F5.873986074074536e-06
sVreiterate
p3274
F7.322798498892333e-06
sVmentioned
p3275
F5.3003373218702505e-05
sVidentified
p3276
F4.625587385709676e-05
sVaccused
p3277
F3.047773613665084e-06
sVenhanced
p3278
F0.00016487590388342122
sVoperated
p3279
F2.052977297259865e-06
sVhumane
p3280
F3.305887307310284e-06
sVcloser
p3281
F9.64095990984102e-05
sVdisjunct
p3282
F1.2042066318648857e-08
sVbrittle
p3283
F1.0473333867406131e-05
sVinsulting
p3284
F2.1012106218959797e-05
sVflicka
p3285
F1.231086618108066e-05
sVsee-through
p3286
F8.002070502752471e-06
sVillusory
p3287
F4.659749166730579e-06
sVbelow
p3288
F5.829133747100645e-05
sVincreased
p3289
F9.875043447480986e-05
sVsuperb
p3290
F0.02074418177183604
sVgenius
p3291
F0.0016196736063964798
sVwritten
p3292
F1.4774169722078022e-05
sVquickest
p3293
F0.00015673459125397718
sVarguable
p3294
F1.8671558270231877e-05
sVcorrectly
p3295
F1.6856255092289668e-05
sVhorrible
p3296
F0.0006994386863972017
sVcrude
p3297
F2.1754159411940305e-05
sVprogress
p3298
F0.0
sVsold
p3299
F1.231086618108066e-05
sVpetrified
p3300
F3.871163890270664e-05
sVcomparable
p3301
F0.00023121860052541048
sVattention
p3302
F0.0
sVexplosive
p3303
F1.1616683685268821e-05
sVopening
p3304
F7.177244444178923e-06
sVmissing
p3305
F2.89396571941082e-06
sVregretful
p3306
F5.209974219550771e-06
sVindiscriminate
p3307
F4.4537318385161243e-05
sVday
p3308
F1.231086618108066e-05
sVkey
p3309
F0.000154575580747168
sVfanta
p3310
F0.0011143159499719753
sVprecious
p3311
F0.001030932393822516
sVweary
p3312
F3.961569708145773e-06
sVoptional
p3313
F0.0
sVproblem
p3314
F5.558701802625906e-06
sVlegit
p3315
F0.00013628744293803588
sVundetermined
p3316
F0.0
sVdiligent
p3317
F1.119934021575689e-05
sVretrievable
p3318
F1.5651042833962698e-05
sVfreely
p3319
F2.910121809503472e-05
sVold-timer
p3320
F5.701527566168938e-07
sVequal
p3321
F0.0002455357560604768
sVfulfilled
p3322
F2.5817762138173484e-05
sVetc
p3323
F6.021325380634233e-06
sVbusted
p3324
F8.244826094600182e-06
sVbroader-based
p3325
F0.0003024769843492837
sVilliquid
p3326
F0.0
sVhigh-ranking
p3327
F7.590989775484627e-10
sVlofty
p3328
F4.3785547314461264e-05
sVglorious
p3329
F0.0035482144933742295
sVotherwise
p3330
F7.473807417934065e-05
sVstrongly
p3331
F1.133366566851537e-05
sVadjusted
p3332
F3.311548330488667e-06
sVrelevant
p3333
F0.00013548308994734242
sVperiodic
p3334
F5.746042924655664e-07
sVauthorised
p3335
F2.477251971738058e-05
sVco-financed
p3336
F3.077716545270165e-06
sVupfront
p3337
F1.0426915478995378e-05
sVnarrower
p3338
F0.00015921537027220974
sVsupreme
p3339
F9.393761945364482e-05
sVgrowin
p3340
F2.6586519419034992e-06
sVinvisible
p3341
F8.711039132073303e-05
sVcrafted
p3342
F1.1347512266473097e-11
sVdisturbing
p3343
F0.00028217083191387
sVrespect
p3344
F4.373937560053441e-06
sVwithdrawn
p3345
F1.199749016913682e-05
sVflourishing
p3346
F1.4416363784112845e-05
sVrusty
p3347
F1.4774159904289079e-05
sVtremendous
p3348
F0.007452048591536815
sVdecent
p3349
F0.00021908460299001326
sVintimidating
p3350
F0.00041244820278485054
sVdefenseless
p3351
F7.482822722571084e-06
sVdazzling
p3352
F0.00012596229178464725
sVrestless
p3353
F0.0001469406298177008
sVsocio-economically
p3354
F2.343445010436856e-06
sVblatant
p3355
F6.905278364345587e-06
sVpreoccupied
p3356
F4.061889988380587e-06
sViike
p3357
F1.0676314650870594e-05
sVah
p3358
F1.1590275020294741e-05
sVupbeat
p3359
F1.1181062057927499e-05
sVfreak
p3360
F2.665757453907289e-06
sVmagical
p3361
F3.031341476907135e-08
sVrecurring
p3362
F6.467051702058297e-05
sVkilled
p3363
F1.7243112483937045e-05
sVclosed
p3364
F1.828167360746869e-05
sVshaun
p3365
F1.2994721502675108e-05
sVfilthy
p3366
F0.00012173247356211684
sVdeterminant
p3367
F2.9704247265726658e-05
sVhomosexual
p3368
F1.2310619968681324e-10
sVcontrolled
p3369
F2.8868466041591066e-05
sVwanna
p3370
F3.6757546860370392e-06
sVsufficient
p3371
F0.00011993345372440548
sVmeritorious
p3372
F9.137238370189103e-05
sVdefunct
p3373
F1.231086618108066e-05
sVpolicy
p3374
F4.7873492328536595e-05
sVfinished
p3375
F2.9193269285938064e-05
sVensuring
p3376
F7.128276664533995e-06
sVtense
p3377
F3.3062867350000635e-05
sVpro-active
p3378
F1.4140135196092721e-05
sVbull
p3379
F1.5092163963765226e-05
sVtangible
p3380
F8.635184343838569e-05
sVbygones
p3381
F2.0144794746530517e-05
sVintelligible
p3382
F1.5010613604119457e-05
sVpresent
p3383
F0.00011310213850313508
sVinconspicuous
p3384
F0.0
sVtroubled
p3385
F8.465606820304985e-05
sVwelcoming
p3386
F5.321224764755436e-10
sVde-insured
p3387
F1.5788906032082542e-06
sVfearful
p3388
F6.702342221614788e-05
sVplain
p3389
F0.00015284911718686504
sVharder
p3390
F0.00038761282133853865
sVirate
p3391
F8.11105676963683e-05
sVspecifically
p3392
F3.8254290917982483e-05
sVimrtant
p3393
F8.799541050679453e-06
sVstunning
p3394
F0.003564792949753854
sVwild
p3395
F0.0002680188012646386
sVadvisable
p3396
F0.00029537965270978023
sVdeductible
p3397
F7.628210332037629e-06
sVfrustrating
p3398
F1.824888267206837e-05
sVat
p3399
F3.79027352177997e-09
sVlikable
p3400
F6.428593494867314e-06
sVconcerted
p3401
F1.5332300347795444e-05
sVripe
p3402
F0.0007464169123374168
sVresident
p3403
F1.9850656539571596e-06
sVunworkable
p3404
F1.4461808340564004e-05
sVrespected
p3405
F2.3187046509586767e-05
sVoptimistic
p3406
F1.2694853856473957e-05
sVraison
p3407
F1.822470573979722e-05
sVuncompetitive
p3408
F0.0
sVwell-behaved
p3409
F3.274455447025681e-05
sVscanty
p3410
F3.508564601008246e-05
sVco-chair
p3411
F0.0
sVlunatic
p3412
F5.48793930220853e-05
sVvice-president
p3413
F1.282268428746421e-05
sVwatchful
p3414
F2.1415397564592088e-05
sVadded
p3415
F1.3657806396999105e-10
sVjusticiable
p3416
F6.984360523036582e-06
sVmimi
p3417
F0.00011824262033477615
sVcross
p3418
F1.463718925101756e-05
sVundisturbed
p3419
F1.5965002489992774e-05
sVfoxy
p3420
F7.930868406748383e-05
sVadverse
p3421
F8.844977581230567e-05
sVstrange
p3422
F0.0006077612791050318
sVswift
p3423
F1.3935026162468562e-05
sVmerciful
p3424
F1.231086618108066e-05
sVgeographical
p3425
F7.01160706951041e-06
sVlargest
p3426
F0.0013735665856576098
sVconfrontational
p3427
F9.487728813550101e-06
sVfinite
p3428
F6.568720369731466e-06
sVprivileged
p3429
F4.0514622632360104e-05
sVdifficult
p3430
F0.0003851987392701894
sVinjured
p3431
F2.005769789447302e-05
sVconflicting
p3432
F8.066712353820983e-06
sVunimaginable
p3433
F0.00014627295386796462
sVsubstandard
p3434
F6.5311654286658e-05
sVselfish
p3435
F1.1074258929175678e-05
sVeccentric
p3436
F8.207236293682511e-06
sVre-routed
p3437
F1.2946782811032029e-06
sVprimary
p3438
F0.00028301463595473483
sVfucked
p3439
F8.254802611532627e-05
sVimpeccable
p3440
F0.0003021595624743906
sVtighter
p3441
F4.0603304493040324e-05
sVdoubtful
p3442
F4.9925284421297163e-05
sVretard
p3443
F4.067964466337992e-06
sVoff
p3444
F7.145569057632871e-06
sVwarranted
p3445
F2.6094511774745613e-05
sVphat
p3446
F6.451882737906517e-05
sVwell
p3447
F0.0006031473637201836
sVsoutheastern
p3448
F1.2027048358619943e-05
sVrife
p3449
F5.053988696617798e-05
sVinsurmountable
p3450
F7.962238716938302e-06
sVtouching
p3451
F0.00011228793117934287
sVjuicy
p3452
F5.795411627804141e-05
sVredeemable
p3453
F7.322798498892333e-06
sVdressed
p3454
F1.6410524907695977e-05
sVfirstly
p3455
F8.8990756592744e-07
sVsalient
p3456
F5.5693740221851937e-05
sVuser-friendly
p3457
F0.00011351980381418537
sVlatest
p3458
F0.000150958434633
sVridonc
p3459
F4.1125812052531226e-05
sVtaller
p3460
F0.00041843168452019425
sVinoperable
p3461
F1.4358555465873553e-06
sVwell-treated
p3462
F1.231086618108066e-05
sVenormously
p3463
F6.568384395018112e-05
sVless
p3464
F0.0003408596074605418
sVincreasingly
p3465
F5.048589132318962e-06
sVaccurate
p3466
F0.0002687357590942296
sVdomestic
p3467
F1.404611129976403e-05
sVmistaken
p3468
F0.00013371433295108443
sVinterim
p3469
F3.5458114748694525e-06
sVdistant
p3470
F7.17791847046113e-05
sVping-pong
p3471
F2.18402587829881e-05
sVadvertised
p3472
F1.6388036552969978e-06
sVminiscule
p3473
F3.1771447541413994e-05
sVexemplary
p3474
F0.0016006755562500952
sVkeen
p3475
F6.895055299074413e-05
sVafflicted
p3476
F0.0001040945673655291
sVgenerous
p3477
F0.00011880668013500073
sVrapid
p3478
F9.624585741395778e-05
sVsublime
p3479
F0.00012163880348566109
sVcinematography
p3480
F0.0
sVfar-reaching
p3481
F0.0002301452820029692
sVterrorized
p3482
F6.1412036150438745e-06
sVdeprived
p3483
F1.8088556718823338e-05
sVtransparent
p3484
F7.387682332039166e-05
sVflame-retardant
p3485
F1.231086618108066e-05
sVattractive
p3486
F0.0007796292468185444
sVwet
p3487
F7.986328762227194e-10
sVladdie
p3488
F1.231086618108066e-05
sVunprecedented
p3489
F5.029197190973065e-05
sVsmart
p3490
F0.00040095359393770664
sVdivided
p3491
F1.6566203358176185e-05
sVinnocents
p3492
F2.7891268059094693e-06
sVdefinitive
p3493
F2.851082931502332e-05
sVample
p3494
F6.8910384435858e-05
sVtesty
p3495
F5.1973707449967326e-05
sVthicker
p3496
F4.758171837886913e-05
sVlivid
p3497
F5.458561618824582e-05
sVacceding
p3498
F1.3657806396999105e-10
sVhistoric
p3499
F1.9743029501200803e-06
sVfive
p3500
F1.231086618108066e-05
sVknow
p3501
F4.132995795044282e-06
sVunseen
p3502
F0.0
sVdenser
p3503
F1.231086618108066e-05
sVimmediately
p3504
F5.582876277127918e-05
sVcondescending
p3505
F1.231086618108066e-05
sVfools
p3506
F4.067964466337992e-06
sVprominent
p3507
F0.00035640202393029977
sVimproper
p3508
F5.168165351200784e-05
sVdisplaced
p3509
F8.171627538844018e-06
sVnecessary
p3510
F0.0004244758795713854
sVhelpful
p3511
F0.00032333544295777713
sVlost
p3512
F2.145154208812567e-05
sVinquisitive
p3513
F2.445258285969468e-05
sVsafest
p3514
F3.529696554296128e-05
sVvibrant
p3515
F1.5104339546568833e-05
sVrealist
p3516
F1.160741795313887e-05
sVuser-defined
p3517
F9.937213666294945e-07
sVadmitted
p3518
F4.152331979858335e-06
sVsized
p3519
F2.416760727965682e-05
sVwarned
p3520
F2.5730906175904346e-06
sVregulated
p3521
F6.496459952902732e-06
sVsoft
p3522
F0.00013549555458378928
sVregardless
p3523
F1.3293139180066099e-05
sVitalian
p3524
F2.6379480489246033e-05
sVaccessible
p3525
F0.0001220438013185279
sVfruitless
p3526
F1.7878184079365124e-05
sVclassical
p3527
F0.00016221989942986664
sVstumpy
p3528
F1.685608653142442e-10
sVforeseeable
p3529
F3.154886367599128e-05
sVscared
p3530
F0.00011335458462600323
sVflagrant
p3531
F0.00012301109184232768
sVholier
p3532
F0.0
sValive
p3533
F5.516553754707621e-05
sVfree-of-charge
p3534
F7.628210332037629e-06
sVwarmer
p3535
F0.00012611522691215448
sVabolitionist
p3536
F0.0
sVflush
p3537
F1.008995769869418e-05
sVproper
p3538
F0.00023963220231703597
sVhome
p3539
F1.1590275020294741e-05
sVfranco
p3540
F9.045306094249926e-06
sVsupportive
p3541
F9.67138947267214e-05
sVwetter
p3542
F8.207650331209775e-06
sVlead
p3543
F2.093158746177747e-05
sVsufficiently
p3544
F6.046902995989215e-05
sVbroad
p3545
F0.0006339430786463009
sVleveraged
p3546
F1.231086618108066e-05
sVtraumatic
p3547
F0.0006692318695306821
sVsnappy
p3548
F5.066317869960655e-06
sVrewarding
p3549
F1.625779335704259e-05
sVeconomical
p3550
F0.00022647532386771218
sVscrewed
p3551
F1.587189201920809e-05
sVkiddo
p3552
F2.1161471477255162e-05
sVblurry
p3553
F1.1023629028299621e-05
sVperplexed
p3554
F8.902736833903657e-05
sVacross-the-board
p3555
F1.7485363243197954e-05
sVinaccurate
p3556
F4.495136323460485e-05
sVdesperate
p3557
F0.0037614482172955437
sVslight
p3558
F0.0002762094496366355
sVastounding
p3559
F0.0014997846393080617
sVself-sustainable
p3560
F1.3951667659792916e-05
sVcombative
p3561
F2.292008613098552e-07
sVdisrespectful
p3562
F2.5310204226727367e-05
sVoverall
p3563
F3.69378289369479e-05
sVuptight
p3564
F3.592225683728029e-05
sVdistinctive
p3565
F0.0006636588439890657
sVprohibited
p3566
F1.4774169722078022e-05
sValthough
p3567
F5.048614374759755e-06
sVhospitable
p3568
F6.896325737380787e-06
sVgandalf
p3569
F1.2215905239196581e-05
sVwell-informed
p3570
F1.0732430644819816e-05
sVunchangeable
p3571
F0.0
sVsimpler
p3572
F0.0003965562565464844
sVabout
p3573
F0.0003474299218025665
sVrare
p3574
F0.00031922692784051214
sVunwelcome
p3575
F6.701935570668575e-06
sVfreedom
p3576
F7.628210332037629e-06
sVinterlinked
p3577
F3.35497062845556e-05
sVsinister
p3578
F0.0
sVrecognized
p3579
F2.5954454619746887e-05
sVcompatible
p3580
F2.2743050049465866e-05
sVwell-served
p3581
F1.231086618108066e-05
sVrecognizes
p3582
F1.5397600577447693e-06
sVmulti-disciplinary
p3583
F1.0682937553516106e-05
sVpersuaded
p3584
F2.5968141691420566e-05
sVdistressed
p3585
F8.48999758674378e-05
sVbaseless
p3586
F3.4976360779929395e-05
sVequally
p3587
F2.8584622158659477e-05
sVown
p3588
F5.596659799096173e-05
sVpolished
p3589
F0.0
sVunsustainable
p3590
F3.338078298048037e-05
sVunfavourable
p3591
F4.2530108531346875e-05
sVpreviously
p3592
F9.868510665236722e-06
sVemotive
p3593
F2.1745593430231434e-05
sVfunctional
p3594
F7.25755070299274e-06
sVsmarty
p3595
F2.1671218606727114e-10
sVlife-long
p3596
F2.7771858475600665e-06
sVscandalous
p3597
F6.578761662557296e-05
sVungrounded
p3598
F3.4976011019819337e-10
sVfemale
p3599
F0.0
sVlawful
p3600
F7.00361162398969e-05
sVscreened
p3601
F1.1232097979569469e-06
sVpointless
p3602
F0.00010845232746971611
sVmere
p3603
F6.989058725888377e-05
sVsignificantly
p3604
F0.0
sVlasting
p3605
F4.201344573346119e-05
sVterminated
p3606
F9.585944918830116e-06
sVwack
p3607
F2.2204526106740912e-05
sVadditional
p3608
F0.00017741765054078937
sVself-explanatory
p3609
F0.00016988631833112397
sVpopulated
p3610
F1.0432111178448485e-10
sVsecret
p3611
F3.476193329364453e-06
sVkidding
p3612
F3.8953254911590484e-05
sVinternationaux
p3613
F5.203283544885581e-06
sVkorean
p3614
F2.9634606419470654e-05
sVmuch
p3615
F0.0009137080430546237
sVutopian
p3616
F0.0
sVrecommendable
p3617
F2.6194904654992866e-09
sVbiggest
p3618
F0.00039947899817745447
sVtroubling
p3619
F0.00046825893563172004
sVunequivocal
p3620
F6.525246160652146e-05
sVnaturally
p3621
F6.021487816636026e-06
sVrevised
p3622
F1.3210696317546102e-05
sVnorth
p3623
F1.679642443669991e-05
sVforthwith
p3624
F1.5715807412398104e-05
sVtreacherous
p3625
F2.0902732665186496e-06
sVhazardous
p3626
F1.8874434120478443e-05
sVbut
p3627
F6.470443710740217e-06
sVdesignated
p3628
F8.11758313460462e-06
sVinsured
p3629
F9.019139190169708e-06
sVneutral
p3630
F6.854493532280694e-07
sVcontradictory
p3631
F2.2008046547596256e-05
sVnut
p3632
F7.547896309268576e-05
sVautomated
p3633
F0.0
sVremote
p3634
F3.0438178578738432e-05
sVhighest
p3635
F0.0011176581738334707
sVillustrative
p3636
F2.1623824469607806e-05
sVpartially
p3637
F2.022407619388913e-10
sVstraightaway
p3638
F1.6541778316815592e-05
sValso
p3639
F2.010651329838716e-05
sVwise
p3640
F0.00027973782383632653
sVevident
p3641
F0.00018207209730539933
sVinstructive
p3642
F0.0002769910749216638
sVdangerous
p3643
F8.376213896220297e-05
sVheavyset
p3644
F0.0
sVofficial
p3645
F1.7897317257011882e-05
sVsmooth
p3646
F0.0012945068640455677
sVall-encompassing
p3647
F3.4956274503415104e-05
sVplaced
p3648
F3.0011558420629984e-07
sVcruel
p3649
F1.4224899189680937e-05
sVdistribution
p3650
F0.0002053201359456856
sVthanan
p3651
F8.384535976492996e-11
sVcordial
p3652
F0.0
sVnon-existent
p3653
F0.00011211986401945761
sVsuccessfully
p3654
F1.6856255092289668e-05
sVhorrific
p3655
F0.0007139764890211427
sVunaffordable
p3656
F6.890314363838966e-06
sVinadequate
p3657
F0.00010700736325294868
sVuniversal
p3658
F4.013411989232388e-05
sVmeaningless
p3659
F7.404094003581021e-05
sVscary
p3660
F0.0006993988228346814
sVinter-connected
p3661
F5.263623112521204e-06
sVwell-defined
p3662
F3.626352830856225e-06
sVunsavory
p3663
F3.812489286386256e-05
sVeducation
p3664
F2.4847693818241357e-10
sVhappen
p3665
F6.114425932033515e-09
sVdeeper
p3666
F0.003080359176956753
sVrenowned
p3667
F1.0490929576280378e-05
sVcompared
p3668
F5.048589132318962e-06
sVrelaxing
p3669
F0.0
sVagreed-upon
p3670
F0.0
sVincredible
p3671
F0.0028601631915532526
sVfortunate
p3672
F0.0002690163613572617
sVdeadly
p3673
F0.0006139561845492401
sVbaby-sitting
p3674
F1.231086618108066e-05
sVoffensive
p3675
F6.0657850885510234e-06
sVlately
p3676
F2.8045472779781586e-06
sVsurreal
p3677
F0.00014373456312033944
sVother
p3678
F0.0001278800327314067
sVonboard
p3679
F1.231086618108066e-05
sVcrummy
p3680
F1.1252131506329904e-06
sVsick
p3681
F0.003139783005863728
sVnon-self-executing
p3682
F2.178000489135021e-06
sVpredominant
p3683
F8.752817856680532e-05
sVreckless
p3684
F0.0009320836095509872
sVhorny
p3685
F0.00012269325726546647
sVecstatic
p3686
F0.00015043817915918057
sVinsupportable
p3687
F1.1396209301352822e-05
sVinescapable
p3688
F5.635047149955921e-05
sVstay
p3689
F2.895732452378251e-05
sVecological
p3690
F0.0003492845632420597
sVaffixed
p3691
F1.231086618108066e-05
sVkinda
p3692
F1.6706546698214468e-06
sVpriced
p3693
F2.210848716390098e-10
sVfriends
p3694
F2.356866281057745e-10
sVconstant
p3695
F3.082458503047062e-05
sVtwo-fold
p3696
F7.898382868922474e-06
sVprevalent
p3697
F0.0001154537067790148
sVpersistent
p3698
F6.961820509043434e-05
sVintentionally
p3699
F0.0005888380682452472
sVgrimmer
p3700
F1.7176101760357207e-05
sVnascent
p3701
F1.720031405431298e-06
sVunderstand
p3702
F3.63502806604793e-06
sVunspeakable
p3703
F0.0
sVrepresentative
p3704
F5.573462551895438e-08
s.